libflxmlrpc.so.1:_ZN6XmlRpc10XmlRpcUtil12nextTagIsEndEPKcRKNSt7__cxx1112basic_stringIcSt11char_traitsIcESaIcEEEPi
libflxmlrpc.so.1:_ZN6XmlRpc10XmlRpcUtil3logEiPKcz
libflxmlrpc.so.1:_ZN6XmlRpc10XmlRpcUtil5errorEPKcz
libflxmlrpc.so.1:_ZN6XmlRpc10XmlRpcUtil7findTagEPKcRKNSt7__cxx1112basic_stringIcSt11char_traitsIcESaIcEEEPiPb
libflxmlrpc.so.1:_ZN6XmlRpc10XmlRpcUtil8parseTagEPKcRKNSt7__cxx1112basic_stringIcSt11char_traitsIcESaIcEEEPiRS8_
libflxmlrpc.so.1:_ZN6XmlRpc10XmlRpcUtil9nextTagIsEPKcRKNSt7__cxx1112basic_stringIcSt11char_traitsIcESaIcEEEPiPb
libflxmlrpc.so.1:_ZN6XmlRpc10XmlRpcUtil9xmlDecodeERKNSt7__cxx1112basic_stringIcSt11char_traitsIcESaIcEEE
libflxmlrpc.so.1:_ZN6XmlRpc10XmlRpcUtil9xmlEncodeERKNSt7__cxx1112basic_stringIcSt11char_traitsIcESaIcEEE
libflxmlrpc.so.1:_ZN6XmlRpc11XmlRpcValue10assertTypeENS0_4TypeE
libflxmlrpc.so.1:_ZN6XmlRpc11XmlRpcValue10intFromXmlERKNSt7__cxx1112basic_stringIcSt11char_traitsIcESaIcEEEPi
libflxmlrpc.so.1:_ZN6XmlRpc11XmlRpcValue10invalidateEv
libflxmlrpc.so.1:_ZN6XmlRpc11XmlRpcValue11assertArrayEi
libflxmlrpc.so.1:_ZN6XmlRpc11XmlRpcValue11boolFromXmlERKNSt7__cxx1112basic_stringIcSt11char_traitsIcESaIcEEEPi
libflxmlrpc.so.1:_ZN6XmlRpc11XmlRpcValue11timeFromXmlERKNSt7__cxx1112basic_stringIcSt11char_traitsIcESaIcEEEPi
libflxmlrpc.so.1:_ZN6XmlRpc11XmlRpcValue12arrayFromXmlERKNSt7__cxx1112basic_stringIcSt11char_traitsIcESaIcEEEPi
libflxmlrpc.so.1:_ZN6XmlRpc11XmlRpcValue12assertStructEv
libflxmlrpc.so.1:_ZN6XmlRpc11XmlRpcValue13binaryFromXmlERKNSt7__cxx1112basic_stringIcSt11char_traitsIcESaIcEEEPi
libflxmlrpc.so.1:_ZN6XmlRpc11XmlRpcValue13doubleFromXmlERKNSt7__cxx1112basic_stringIcSt11char_traitsIcESaIcEEEPi
libflxmlrpc.so.1:_ZN6XmlRpc11XmlRpcValue13stringFromXmlERKNSt7__cxx1112basic_stringIcSt11char_traitsIcESaIcEEEPi
libflxmlrpc.so.1:_ZN6XmlRpc11XmlRpcValue13structFromXmlERKNSt7__cxx1112basic_stringIcSt11char_traitsIcESaIcEEEPi
libflxmlrpc.so.1:_ZN6XmlRpc11XmlRpcValue7fromXmlERKNSt7__cxx1112basic_stringIcSt11char_traitsIcESaIcEEEPi
libflxmlrpc.so.1:_ZN6XmlRpc11XmlRpcValueaSERKS0_
libflxmlrpc.so.1:_ZN6XmlRpc12XmlRpcClient10readHeaderEv
libflxmlrpc.so.1:_ZN6XmlRpc12XmlRpcClient11handleEventEj
libflxmlrpc.so.1:_ZN6XmlRpc12XmlRpcClient11parseHeaderEv
libflxmlrpc.so.1:_ZN6XmlRpc12XmlRpcClient12readResponseEv
libflxmlrpc.so.1:_ZN6XmlRpc12XmlRpcClient12writeRequestEv
libflxmlrpc.so.1:_ZN6XmlRpc12XmlRpcClient13parseResponseERNS_11XmlRpcValueE
libflxmlrpc.so.1:_ZN6XmlRpc12XmlRpcClient14generateHeaderERKNSt7__cxx1112basic_stringIcSt11char_traitsIcESaIcEEE
libflxmlrpc.so.1:_ZN6XmlRpc12XmlRpcClient15generateRequestEPKcRKNS_11XmlRpcValueE
libflxmlrpc.so.1:_ZN6XmlRpc12XmlRpcClient15setupConnectionEv
libflxmlrpc.so.1:_ZN6XmlRpc12XmlRpcClient5closeEv
libflxmlrpc.so.1:_ZN6XmlRpc12XmlRpcClient7executeEPKcRKNS_11XmlRpcValueERS3_d
libflxmlrpc.so.1:_ZN6XmlRpc12XmlRpcClient9doConnectEv
libflxmlrpc.so.1:_ZN6XmlRpc12XmlRpcClientC1EPKciS2_
libflxmlrpc.so.1:_ZN6XmlRpc12XmlRpcClientC1EPKciS2_S2_S2_
libflxmlrpc.so.1:_ZN6XmlRpc12XmlRpcClientC2EPKciS2_
libflxmlrpc.so.1:_ZN6XmlRpc12XmlRpcClientC2EPKciS2_S2_S2_
libflxmlrpc.so.1:_ZN6XmlRpc12XmlRpcClientD0Ev
libflxmlrpc.so.1:_ZN6XmlRpc12XmlRpcClientD1Ev
libflxmlrpc.so.1:_ZN6XmlRpc12XmlRpcClientD2Ev
libflxmlrpc.so.1:_ZN6XmlRpc12XmlRpcServer11handleEventEj
libflxmlrpc.so.1:_ZN6XmlRpc12XmlRpcServer11listMethodsERNS_11XmlRpcValueE
libflxmlrpc.so.1:_ZN6XmlRpc12XmlRpcServer12parseRequestERKNSt7__cxx1112basic_stringIcSt11char_traitsIcESaIcEEERNS_11XmlRpcValueE
libflxmlrpc.so.1:_ZN6XmlRpc12XmlRpcServer12removeMethodEPNS_18XmlRpcServerMethodE
libflxmlrpc.so.1:_ZN6XmlRpc12XmlRpcServer12removeMethodERKNSt7__cxx1112basic_stringIcSt11char_traitsIcESaIcEEE
libflxmlrpc.so.1:_ZN6XmlRpc12XmlRpcServer13bindAndListenEii
libflxmlrpc.so.1:_ZN6XmlRpc12XmlRpcServer13executeMethodERKNSt7__cxx1112basic_stringIcSt11char_traitsIcESaIcEEERNS_11XmlRpcValueESA_
libflxmlrpc.so.1:_ZN6XmlRpc12XmlRpcServer14executeRequestERKNSt7__cxx1112basic_stringIcSt11char_traitsIcESaIcEEE
libflxmlrpc.so.1:_ZN6XmlRpc12XmlRpcServer14generateHeaderERKNSt7__cxx1112basic_stringIcSt11char_traitsIcESaIcEEE
libflxmlrpc.so.1:_ZN6XmlRpc12XmlRpcServer16acceptConnectionEv
libflxmlrpc.so.1:_ZN6XmlRpc12XmlRpcServer16createConnectionEi
libflxmlrpc.so.1:_ZN6XmlRpc12XmlRpcServer16executeMulticallERKNSt7__cxx1112basic_stringIcSt11char_traitsIcESaIcEEERNS_11XmlRpcValueESA_
libflxmlrpc.so.1:_ZN6XmlRpc12XmlRpcServer16generateResponseERKNSt7__cxx1112basic_stringIcSt11char_traitsIcESaIcEEE
libflxmlrpc.so.1:_ZN6XmlRpc12XmlRpcServer16removeConnectionEPNS_22XmlRpcServerConnectionE
libflxmlrpc.so.1:_ZN6XmlRpc12XmlRpcServer18dispatchConnectionEPNS_22XmlRpcServerConnectionE
libflxmlrpc.so.1:_ZN6XmlRpc12XmlRpcServer19enableIntrospectionEb
libflxmlrpc.so.1:_ZN6XmlRpc12XmlRpcServer21generateFaultResponseERKNSt7__cxx1112basic_stringIcSt11char_traitsIcESaIcEEEi
libflxmlrpc.so.1:_ZN6XmlRpc12XmlRpcServer4exitEv
libflxmlrpc.so.1:_ZN6XmlRpc12XmlRpcServer4workEd
libflxmlrpc.so.1:_ZN6XmlRpc12XmlRpcServer8shutdownEv
libflxmlrpc.so.1:_ZN6XmlRpc12XmlRpcServer9addMethodEPNS_18XmlRpcServerMethodE
libflxmlrpc.so.1:_ZN6XmlRpc12XmlRpcServerC1Ev
libflxmlrpc.so.1:_ZN6XmlRpc12XmlRpcServerC2Ev
libflxmlrpc.so.1:_ZN6XmlRpc12XmlRpcServerD0Ev
libflxmlrpc.so.1:_ZN6XmlRpc12XmlRpcServerD1Ev
libflxmlrpc.so.1:_ZN6XmlRpc12XmlRpcServerD2Ev
libflxmlrpc.so.1:_ZN6XmlRpc12XmlRpcSocket11getErrorMsgB5cxx11Ei
libflxmlrpc.so.1:_ZN6XmlRpc12XmlRpcSocket11getErrorMsgB5cxx11Ev
libflxmlrpc.so.1:_ZN6XmlRpc12XmlRpcSocket12setReuseAddrEi
libflxmlrpc.so.1:_ZN6XmlRpc12XmlRpcSocket13nonFatalErrorEv
libflxmlrpc.so.1:_ZN6XmlRpc12XmlRpcSocket14setNonBlockingEi
libflxmlrpc.so.1:_ZN6XmlRpc12XmlRpcSocket4bindEii
libflxmlrpc.so.1:_ZN6XmlRpc12XmlRpcSocket5closeEi
libflxmlrpc.so.1:_ZN6XmlRpc12XmlRpcSocket6acceptEi
libflxmlrpc.so.1:_ZN6XmlRpc12XmlRpcSocket6listenEii
libflxmlrpc.so.1:_ZN6XmlRpc12XmlRpcSocket6socketEv
libflxmlrpc.so.1:_ZN6XmlRpc12XmlRpcSocket7connectEiRNSt7__cxx1112basic_stringIcSt11char_traitsIcESaIcEEEi
libflxmlrpc.so.1:_ZN6XmlRpc12XmlRpcSocket7getPortEi
libflxmlrpc.so.1:_ZN6XmlRpc12XmlRpcSocket8getErrorEv
libflxmlrpc.so.1:_ZN6XmlRpc12XmlRpcSource13setSslEnabledEb
libflxmlrpc.so.1:_ZN6XmlRpc12XmlRpcSource5closeEv
libflxmlrpc.so.1:_ZN6XmlRpc12XmlRpcSource6nbReadERNSt7__cxx1112basic_stringIcSt11char_traitsIcESaIcEEEPb
libflxmlrpc.so.1:_ZN6XmlRpc12XmlRpcSource7nbWriteERKNSt7__cxx1112basic_stringIcSt11char_traitsIcESaIcEEEPi
libflxmlrpc.so.1:_ZN6XmlRpc12XmlRpcSource9doConnectEv
libflxmlrpc.so.1:_ZN6XmlRpc12XmlRpcSourceC1Eib
libflxmlrpc.so.1:_ZN6XmlRpc12XmlRpcSourceC2Eib
libflxmlrpc.so.1:_ZN6XmlRpc12XmlRpcSourceD0Ev
libflxmlrpc.so.1:_ZN6XmlRpc12XmlRpcSourceD1Ev
libflxmlrpc.so.1:_ZN6XmlRpc12XmlRpcSourceD2Ev
libflxmlrpc.so.1:_ZN6XmlRpc12getVerbosityEv
libflxmlrpc.so.1:_ZN6XmlRpc12setVerbosityEi
libflxmlrpc.so.1:_ZN6XmlRpc14XmlRpcDispatch12removeSourceEPNS_12XmlRpcSourceE
libflxmlrpc.so.1:_ZN6XmlRpc14XmlRpcDispatch15setSourceEventsEPNS_12XmlRpcSourceEj
libflxmlrpc.so.1:_ZN6XmlRpc14XmlRpcDispatch23waitForAndProcessEventsEd
libflxmlrpc.so.1:_ZN6XmlRpc14XmlRpcDispatch4exitEv
libflxmlrpc.so.1:_ZN6XmlRpc14XmlRpcDispatch4workEd
libflxmlrpc.so.1:_ZN6XmlRpc14XmlRpcDispatch5clearEv
libflxmlrpc.so.1:_ZN6XmlRpc14XmlRpcDispatch7getTimeEv
libflxmlrpc.so.1:_ZN6XmlRpc14XmlRpcDispatch9addSourceEPNS_12XmlRpcSourceEj
libflxmlrpc.so.1:_ZN6XmlRpc14XmlRpcDispatchC1Ev
libflxmlrpc.so.1:_ZN6XmlRpc14XmlRpcDispatchC2Ev
libflxmlrpc.so.1:_ZN6XmlRpc14XmlRpcDispatchD1Ev
libflxmlrpc.so.1:_ZN6XmlRpc14XmlRpcDispatchD2Ev
libflxmlrpc.so.1:_ZN6XmlRpc18XmlRpcServerMethodC1ERKNSt7__cxx1112basic_stringIcSt11char_traitsIcESaIcEEEPNS_12XmlRpcServerE
libflxmlrpc.so.1:_ZN6XmlRpc18XmlRpcServerMethodC2ERKNSt7__cxx1112basic_stringIcSt11char_traitsIcESaIcEEEPNS_12XmlRpcServerE
libflxmlrpc.so.1:_ZN6XmlRpc18XmlRpcServerMethodD0Ev
libflxmlrpc.so.1:_ZN6XmlRpc18XmlRpcServerMethodD1Ev
libflxmlrpc.so.1:_ZN6XmlRpc18XmlRpcServerMethodD2Ev
libflxmlrpc.so.1:_ZN6XmlRpc22XmlRpcServerConnection10readHeaderEv
libflxmlrpc.so.1:_ZN6XmlRpc22XmlRpcServerConnection11handleEventEj
libflxmlrpc.so.1:_ZN6XmlRpc22XmlRpcServerConnection11readRequestEv
libflxmlrpc.so.1:_ZN6XmlRpc22XmlRpcServerConnection13writeResponseEv
libflxmlrpc.so.1:_ZN6XmlRpc22XmlRpcServerConnection14executeRequestEv
libflxmlrpc.so.1:_ZN6XmlRpc22XmlRpcServerConnectionC1EiPNS_12XmlRpcServerEb
libflxmlrpc.so.1:_ZN6XmlRpc22XmlRpcServerConnectionC2EiPNS_12XmlRpcServerEb
libflxmlrpc.so.1:_ZN6XmlRpc22XmlRpcServerConnectionD0Ev
libflxmlrpc.so.1:_ZN6XmlRpc22XmlRpcServerConnectionD1Ev
libflxmlrpc.so.1:_ZN6XmlRpc22XmlRpcServerConnectionD2Ev
libflxmlrpc.so.1:_ZNK6XmlRpc11XmlRpcValue10arrayToXmlB5cxx11Ev
libflxmlrpc.so.1:_ZNK6XmlRpc11XmlRpcValue10assertTypeENS0_4TypeE
libflxmlrpc.so.1:_ZNK6XmlRpc11XmlRpcValue11assertArrayEi
libflxmlrpc.so.1:_ZNK6XmlRpc11XmlRpcValue11binaryToXmlB5cxx11Ev
libflxmlrpc.so.1:_ZNK6XmlRpc11XmlRpcValue11doubleToXmlB5cxx11Ev
libflxmlrpc.so.1:_ZNK6XmlRpc11XmlRpcValue11stringToXmlB5cxx11Ev
libflxmlrpc.so.1:_ZNK6XmlRpc11XmlRpcValue11structToXmlB5cxx11Ev
libflxmlrpc.so.1:_ZNK6XmlRpc11XmlRpcValue4sizeEv
libflxmlrpc.so.1:_ZNK6XmlRpc11XmlRpcValue5toXmlB5cxx11Ev
libflxmlrpc.so.1:_ZNK6XmlRpc11XmlRpcValue5writeERSo
libflxmlrpc.so.1:_ZNK6XmlRpc11XmlRpcValue8intToXmlB5cxx11Ev
libflxmlrpc.so.1:_ZNK6XmlRpc11XmlRpcValue8nilToXmlB5cxx11Ev
libflxmlrpc.so.1:_ZNK6XmlRpc11XmlRpcValue9boolToXmlB5cxx11Ev
libflxmlrpc.so.1:_ZNK6XmlRpc11XmlRpcValue9hasMemberERKNSt7__cxx1112basic_stringIcSt11char_traitsIcESaIcEEE
libflxmlrpc.so.1:_ZNK6XmlRpc11XmlRpcValue9timeToXmlB5cxx11Ev
libflxmlrpc.so.1:_ZNK6XmlRpc11XmlRpcValueeqERKS0_
libflxmlrpc.so.1:_ZNK6XmlRpc11XmlRpcValueneERKS0_
libflxmlrpc.so.1:_ZNK6XmlRpc12XmlRpcServer10findMethodERKNSt7__cxx1112basic_stringIcSt11char_traitsIcESaIcEEE
libflxmlrpc.so.1:_ZNK6XmlRpc12XmlRpcServer7getPortEv
libflxmlrpc.so.1:_ZlsRSoRN6XmlRpc11XmlRpcValueE
