libpolyml.so.11:PolyAddArbitrary
libpolyml.so.11:PolyAndArbitrary
libpolyml.so.11:PolyBasicIOGeneral
libpolyml.so.11:PolyChDir
libpolyml.so.11:PolyCompareArbitrary
libpolyml.so.11:PolyCopyByteVecToClosure
libpolyml.so.11:PolyCopyByteVecToCode
libpolyml.so.11:PolyCreateEntryPointObject
libpolyml.so.11:PolyDivideArbitrary
libpolyml.so.11:PolyExport
libpolyml.so.11:PolyExportPortable
libpolyml.so.11:PolyFFICreateExtData
libpolyml.so.11:PolyFFICreateExtFn
libpolyml.so.11:PolyFFIGeneral
libpolyml.so.11:PolyFFIGetError
libpolyml.so.11:PolyFFISetError
libpolyml.so.11:PolyFinish
libpolyml.so.11:PolyFloatArbitraryPrecision
libpolyml.so.11:PolyFullGC
libpolyml.so.11:PolyGCDArbitrary
libpolyml.so.11:PolyGetABI
libpolyml.so.11:PolyGetCodeByte
libpolyml.so.11:PolyGetFunctionName
libpolyml.so.11:PolyGetLocalStats
libpolyml.so.11:PolyGetLowOrderAsLargeWord
libpolyml.so.11:PolyGetMaxAllocationSize
libpolyml.so.11:PolyGetMaxStringSize
libpolyml.so.11:PolyGetModuleDirectory
libpolyml.so.11:PolyGetOSType
libpolyml.so.11:PolyGetPolyVersionNumber
libpolyml.so.11:PolyGetRemoteStats
libpolyml.so.11:PolyGetRoundingMode
libpolyml.so.11:PolyGetUserStatsCount
libpolyml.so.11:PolyIsBigEndian
libpolyml.so.11:PolyLCMArbitrary
libpolyml.so.11:PolyLoadHierarchy
libpolyml.so.11:PolyLoadModule
libpolyml.so.11:PolyLoadState
libpolyml.so.11:PolyLockMutableClosure
libpolyml.so.11:PolyLockMutableCode
libpolyml.so.11:PolyMultiplyArbitrary
libpolyml.so.11:PolyNetworkCloseSocket
libpolyml.so.11:PolyNetworkGeneral
libpolyml.so.11:PolyNetworkGetHostByAddr
libpolyml.so.11:PolyNetworkGetHostByName
libpolyml.so.11:PolyNetworkGetHostName
libpolyml.so.11:PolyNetworkGetProtByName
libpolyml.so.11:PolyNetworkGetProtByNo
libpolyml.so.11:PolyNetworkGetServByName
libpolyml.so.11:PolyNetworkGetServByNameAndProtocol
libpolyml.so.11:PolyNetworkGetServByPort
libpolyml.so.11:PolyNetworkGetServByPortAndProtocol
libpolyml.so.11:PolyOSSpecificGeneral
libpolyml.so.11:PolyObjProfile
libpolyml.so.11:PolyObjSize
libpolyml.so.11:PolyOrArbitrary
libpolyml.so.11:PolyPosixCreatePersistentFD
libpolyml.so.11:PolyProcessEnvErrorFromString
libpolyml.so.11:PolyProcessEnvErrorMessage
libpolyml.so.11:PolyProcessEnvErrorName
libpolyml.so.11:PolyProcessEnvGeneral
libpolyml.so.11:PolyProfiling
libpolyml.so.11:PolyQuotRemArbitrary
libpolyml.so.11:PolyQuotRemArbitraryPair
libpolyml.so.11:PolyRealArcCos
libpolyml.so.11:PolyRealArcSin
libpolyml.so.11:PolyRealArctan
libpolyml.so.11:PolyRealAtan2
libpolyml.so.11:PolyRealBoxedFromString
libpolyml.so.11:PolyRealBoxedToLongInt
libpolyml.so.11:PolyRealBoxedToString
libpolyml.so.11:PolyRealCeil
libpolyml.so.11:PolyRealCopySign
libpolyml.so.11:PolyRealCos
libpolyml.so.11:PolyRealCosh
libpolyml.so.11:PolyRealExp
libpolyml.so.11:PolyRealFArcCos
libpolyml.so.11:PolyRealFArcSin
libpolyml.so.11:PolyRealFArctan
libpolyml.so.11:PolyRealFAtan2
libpolyml.so.11:PolyRealFCeil
libpolyml.so.11:PolyRealFCopySign
libpolyml.so.11:PolyRealFCos
libpolyml.so.11:PolyRealFCosh
libpolyml.so.11:PolyRealFExp
libpolyml.so.11:PolyRealFFloor
libpolyml.so.11:PolyRealFLog
libpolyml.so.11:PolyRealFLog10
libpolyml.so.11:PolyRealFNextAfter
libpolyml.so.11:PolyRealFPow
libpolyml.so.11:PolyRealFRem
libpolyml.so.11:PolyRealFRound
libpolyml.so.11:PolyRealFSin
libpolyml.so.11:PolyRealFSinh
libpolyml.so.11:PolyRealFSqrt
libpolyml.so.11:PolyRealFTan
libpolyml.so.11:PolyRealFTanh
libpolyml.so.11:PolyRealFTrunc
libpolyml.so.11:PolyRealFloor
libpolyml.so.11:PolyRealFrexp
libpolyml.so.11:PolyRealGeneral
libpolyml.so.11:PolyRealLdexp
libpolyml.so.11:PolyRealLog
libpolyml.so.11:PolyRealLog10
libpolyml.so.11:PolyRealNextAfter
libpolyml.so.11:PolyRealPow
libpolyml.so.11:PolyRealRem
libpolyml.so.11:PolyRealRound
libpolyml.so.11:PolyRealSin
libpolyml.so.11:PolyRealSinh
libpolyml.so.11:PolyRealSize
libpolyml.so.11:PolyRealSqrt
libpolyml.so.11:PolyRealTan
libpolyml.so.11:PolyRealTanh
libpolyml.so.11:PolyRealTrunc
libpolyml.so.11:PolyRemainderArbitrary
libpolyml.so.11:PolyRenameParent
libpolyml.so.11:PolySaveState
libpolyml.so.11:PolySetCodeByte
libpolyml.so.11:PolySetCodeConstant
libpolyml.so.11:PolySetRoundingMode
libpolyml.so.11:PolySetSignalHandler
libpolyml.so.11:PolySetUserStat
libpolyml.so.11:PolyShareCommonData
libpolyml.so.11:PolyShowHierarchy
libpolyml.so.11:PolyShowParent
libpolyml.so.11:PolyShowSize
libpolyml.so.11:PolySizeDouble
libpolyml.so.11:PolySizeFloat
libpolyml.so.11:PolySortArrayOfAddresses
libpolyml.so.11:PolySpecificGeneral
libpolyml.so.11:PolyStoreModule
libpolyml.so.11:PolySubtractArbitrary
libpolyml.so.11:PolyTerminate
libpolyml.so.11:PolyThreadBroadcastInterrupt
libpolyml.so.11:PolyThreadCondVarWait
libpolyml.so.11:PolyThreadCondVarWaitUntil
libpolyml.so.11:PolyThreadCondVarWake
libpolyml.so.11:PolyThreadForkThread
libpolyml.so.11:PolyThreadGeneral
libpolyml.so.11:PolyThreadInterruptThread
libpolyml.so.11:PolyThreadIsActive
libpolyml.so.11:PolyThreadKillSelf
libpolyml.so.11:PolyThreadKillThread
libpolyml.so.11:PolyThreadMaxStackSize
libpolyml.so.11:PolyThreadMutexBlock
libpolyml.so.11:PolyThreadMutexUnlock
libpolyml.so.11:PolyThreadNumPhysicalProcessors
libpolyml.so.11:PolyThreadNumProcessors
libpolyml.so.11:PolyThreadTestInterrupt
libpolyml.so.11:PolyTimingGeneral
libpolyml.so.11:PolyWaitForSignal
libpolyml.so.11:PolyXWindowsGeneral
libpolyml.so.11:PolyXorArbitrary
libpolyml.so.11:X86AsmAtomicIncrement
libpolyml.so.11:X86AsmCallExtraRETURN_HEAP_OVERFLOW
libpolyml.so.11:X86AsmCallExtraRETURN_STACK_OVERFLOW
libpolyml.so.11:X86AsmCallExtraRETURN_STACK_OVERFLOWEX
libpolyml.so.11:X86AsmCallbackException
libpolyml.so.11:X86AsmCallbackReturn
libpolyml.so.11:X86AsmKillSelf
libpolyml.so.11:X86AsmPopArgAndClosure
libpolyml.so.11:X86AsmRaiseException
libpolyml.so.11:X86AsmSwitchToPoly
libpolyml.so.11:_Z10CreateHeapv
libpolyml.so.11:_Z10RTSArgHelpv
libpolyml.so.11:_Z10RunQuickGCm
libpolyml.so.11:_Z10SetLogFilePKc
libpolyml.so.11:_Z10XWindows_cP8TaskDataP12SaveVecEntry
libpolyml.so.11:_Z10exitThreadP8TaskData
libpolyml.so.11:_Z10fileAccessP8TaskDataP12SaveVecEntryS2_
libpolyml.so.11:_Z10renameFileP8TaskDataP12SaveVecEntryS2_
libpolyml.so.11:_Z10strconcatcP8TaskDataP12SaveVecEntryS2_
libpolyml.so.11:_Z11EmptyStringP8TaskData
libpolyml.so.11:_Z11GCCopyPhasev
libpolyml.so.11:_Z11GCMarkPhasev
libpolyml.so.11:_Z11InitModulesv
libpolyml.so.11:_Z11StopModulesv
libpolyml.so.11:_Z11addTimevalsP7timevalPKS_
libpolyml.so.11:_Z11compareLong8PolyWordS_
libpolyml.so.11:_Z11get_C_shortP8TaskData8PolyWord
libpolyml.so.11:_Z11getroundingv
libpolyml.so.11:_Z11real_resultP8TaskDatad
libpolyml.so.11:_Z11setroundingi
libpolyml.so.11:_Z11subTimevalsP7timevalPKS_
libpolyml.so.11:_Z12Make_syswordP8TaskDatam
libpolyml.so.11:_Z12StartModulesv
libpolyml.so.11:_Z12Uninitialisev
libpolyml.so.11:_Z12exportNativeP8TaskDataP12SaveVecEntry
libpolyml.so.11:_Z12float_resultP8TaskDataf
libpolyml.so.11:_Z12getBuildTimev
libpolyml.so.11:_Z12get_C_ushortP8TaskData8PolyWord
libpolyml.so.11:_Z12print_string8PolyWord
libpolyml.so.11:_Z13DoCheckMemoryv
libpolyml.so.11:_Z13DoCheckObjectPK10PolyObjectm
libpolyml.so.11:_Z13ExitWithErrorPKci
libpolyml.so.11:_Z13GCUpdatePhasev
libpolyml.so.11:_Z13getPolySignedP8TaskData8PolyWord
libpolyml.so.11:_Z13readDirectoryP8TaskDataP12SaveVecEntry
libpolyml.so.11:_Z13setEntryPointP10PolyObject
libpolyml.so.11:_Z14DoCheckPointer8PolyWord
libpolyml.so.11:_Z14GCSharingPhasev
libpolyml.so.11:_Z14GCheckWeakRefsv
libpolyml.so.11:_Z14ImportPortablePKc
libpolyml.so.11:_Z14alloc_and_saveP8TaskDatamj
libpolyml.so.11:_Z14exportPortableP8TaskDataP12SaveVecEntry
libpolyml.so.11:_Z14getObjectStateP10PolyObject
libpolyml.so.11:_Z14get_C_unsignedP8TaskData8PolyWord
libpolyml.so.11:_Z14init_asyncmaskP10__sigset_t
libpolyml.so.11:_Z15getPolyUnsignedP8TaskData8PolyWord
libpolyml.so.11:_Z15markSignalInusei
libpolyml.so.11:_Z15poly_dispatch_cP8TaskDataP12SaveVecEntryS2_
libpolyml.so.11:_Z15rewindDirectoryP8TaskDataP12SaveVecEntryS2_
libpolyml.so.11:_Z16AddObjectProfileP10PolyObject
libpolyml.so.11:_Z16C_string_to_PolyP8TaskDataPKcm
libpolyml.so.11:_Z16MakeVolatileWordP8TaskDataPv
libpolyml.so.11:_Z16MakeVolatileWordP8TaskDatam
libpolyml.so.11:_Z16Poly_string_to_C8PolyWordPcm
libpolyml.so.11:_Z16freeStringVectorPPc
libpolyml.so.11:_Z16setSignalHandleriPFviP9siginfo_tPvE
libpolyml.so.11:_Z16timevalToSecondsPK7timeval
libpolyml.so.11:_Z17CheckAndGrowStackP8TaskDatam
libpolyml.so.11:_Z17getEntryPointNameP10PolyObjectPb
libpolyml.so.11:_Z17handleProfileTrapP8TaskDataP10ucontext_t
libpolyml.so.11:_Z17initThreadSignalsP8TaskData
libpolyml.so.11:_Z18NumberOfProcessorsv
libpolyml.so.11:_Z18OS_spec_dispatch_cP8TaskDataP12SaveVecEntryS2_
libpolyml.so.11:_Z18stringListToVectorP12SaveVecEntry
libpolyml.so.11:_Z18wrapFileDescriptorP8TaskDatai
libpolyml.so.11:_Z19convert_string_listP8TaskDataiPPc
libpolyml.so.11:_Z19errorCodeFromStringPKcPi
libpolyml.so.11:_Z19makeExceptionPacketP8TaskDatai
libpolyml.so.11:_Z19stringFromErrorCodei
libpolyml.so.11:_Z20InitHeaderFromExportP18_exportDescription
libpolyml.so.11:_Z20Make_fixed_precisionP8TaskDatai
libpolyml.so.11:_Z20Make_fixed_precisionP8TaskDataj
libpolyml.so.11:_Z20Make_fixed_precisionP8TaskDatal
libpolyml.so.11:_Z20Make_fixed_precisionP8TaskDatam
libpolyml.so.11:_Z20Make_fixed_precisionP8TaskDatax
libpolyml.so.11:_Z20Make_fixed_precisionP8TaskDatay
libpolyml.so.11:_Z21creatEntryPointObjectP8TaskDataP12SaveVecEntryb
libpolyml.so.11:_Z22CopyObjectToNewAddressP10PolyObjectS0_m
libpolyml.so.11:_Z22Poly_string_to_C_alloc8PolyWordm
libpolyml.so.11:_Z22initialiseMarkerTablesv
libpolyml.so.11:_Z23getStreamFileDescriptorP8TaskData8PolyWord
libpolyml.so.11:_Z23raiseSycallWithLocationP8TaskDataPKciS2_i
libpolyml.so.11:_Z24FullGCForShareCommonDatav
libpolyml.so.11:_Z24Make_arbitrary_precisionP8TaskDatai
libpolyml.so.11:_Z24Make_arbitrary_precisionP8TaskDataj
libpolyml.so.11:_Z24Make_arbitrary_precisionP8TaskDatal
libpolyml.so.11:_Z24Make_arbitrary_precisionP8TaskDatam
libpolyml.so.11:_Z24Make_arbitrary_precisionP8TaskDatax
libpolyml.so.11:_Z24Make_arbitrary_precisionP8TaskDatay
libpolyml.so.11:_Z25Make_arb_from_pair_scaledP8TaskDatajjj
libpolyml.so.11:_Z26ArbitraryPrecionFromSignedP8TaskDatal
libpolyml.so.11:_Z26GCSetSingleThreadAfterForkv
libpolyml.so.11:_Z26NumberOfPhysicalProcessorsv
libpolyml.so.11:_Z27raiseException0WithLocationP8TaskDataiPKci
libpolyml.so.11:_Z28ArbitraryPrecionFromUnsignedP8TaskDatam
libpolyml.so.11:_Z30raiseExceptionFailWithLocationP8TaskDataPKcS2_i
libpolyml.so.11:_Z31get_arbitrary_precision_as_real8PolyWord
libpolyml.so.11:_Z32raiseExceptionStringWithLocationP8TaskDataiPKcS2_i
libpolyml.so.11:_Z35getStreamFileDescriptorWithoutCheck8PolyWord
libpolyml.so.11:_Z3LogPKcz
libpolyml.so.11:_Z4ExitPKcz
libpolyml.so.11:_Z5CrashPKcz
libpolyml.so.11:_Z5allocP8TaskDatamj
libpolyml.so.11:_Z5isDirP8TaskDataP12SaveVecEntry
libpolyml.so.11:_Z6FullGCP8TaskData
libpolyml.so.11:_Z6finishi
libpolyml.so.11:_Z7DoCheck8PolyWord
libpolyml.so.11:_Z7LogSizem
libpolyml.so.11:_Z7ObjSizeP8TaskDataP12SaveVecEntry
libpolyml.so.11:_Z7QuickGCP8TaskDatam
libpolyml.so.11:_Z7modTimeP8TaskDataP12SaveVecEntry
libpolyml.so.11:_Z7setTimeP8TaskDataP12SaveVecEntryS2_
libpolyml.so.11:_Z8ShowSizeP8TaskDataP12SaveVecEntry
libpolyml.so.11:_Z8errorMsgP8TaskDatai
libpolyml.so.11:_Z8fileSizeP8TaskDataP12SaveVecEntry
libpolyml.so.11:_Z8fullPathP8TaskDataP12SaveVecEntry
libpolyml.so.11:_Z8makeListP8TaskDataiPciPvPFP12SaveVecEntryS0_S2_S1_E
libpolyml.so.11:_Z8pollTestP8TaskDataP12SaveVecEntry
libpolyml.so.11:_Z8real_argP12SaveVecEntry
libpolyml.so.11:_Z9GCModulesP11ScanAddress
libpolyml.so.11:_Z9ShareDataP8TaskDataP12SaveVecEntry
libpolyml.so.11:_Z9add_countP8TaskDataPhm
libpolyml.so.11:_Z9div_longcP8TaskDataP12SaveVecEntryS2_
libpolyml.so.11:_Z9float_argP12SaveVecEntry
libpolyml.so.11:_Z9get_C_intP8TaskData8PolyWord
libpolyml.so.11:_Z9parseSizePKcS0_
libpolyml.so.11:_Z9rem_longcP8TaskDataP12SaveVecEntryS2_
libpolyml.so.11:_Z9shareWithP10PolyObjectS0_
libpolyml.so.11:_ZN10GCTaskFarm10InitialiseEjj
libpolyml.so.11:_ZN10GCTaskFarm14ThreadFunctionEv
libpolyml.so.11:_ZN10GCTaskFarm15AddWorkOrRunNowEPFvP8GCTaskIdPvS2_ES2_S2_
libpolyml.so.11:_ZN10GCTaskFarm17WaitForCompletionEv
libpolyml.so.11:_ZN10GCTaskFarm20WorkerThreadFunctionEPv
libpolyml.so.11:_ZN10GCTaskFarm7AddWorkEPFvP8GCTaskIdPvS2_ES2_S2_
libpolyml.so.11:_ZN10GCTaskFarm9TerminateEv
libpolyml.so.11:_ZN10GCTaskFarmC1Ev
libpolyml.so.11:_ZN10GCTaskFarmC2Ev
libpolyml.so.11:_ZN10GCTaskFarmD1Ev
libpolyml.so.11:_ZN10GCTaskFarmD2Ev
libpolyml.so.11:_ZN10GetSharing11TestForScanEP8PolyWord
libpolyml.so.11:_ZN10GetSharing13shareByteDataEP8GCTaskIdPvS2_
libpolyml.so.11:_ZN10GetSharing13shareWordDataEP8GCTaskIdPvS2_
libpolyml.so.11:_ZN10GetSharing14MarkAsScanningEP10PolyObject
libpolyml.so.11:_ZN10GetSharing17ScanObjectAddressEP10PolyObject
libpolyml.so.11:_ZN10GetSharing22shareRemainingWordDataEP8GCTaskIdPvS2_
libpolyml.so.11:_ZN10GetSharing8SortDataEv
libpolyml.so.11:_ZN10GetSharing9CompletedEP10PolyObject
libpolyml.so.11:_ZN10GetSharingC1Ev
libpolyml.so.11:_ZN10GetSharingC2Ev
libpolyml.so.11:_ZN10HeapSizing4InitEv
libpolyml.so.11:_ZN10HeapSizing4StopEv
libpolyml.so.11:_ZN10Networking4InitEv
libpolyml.so.11:_ZN10Networking4StopEv
libpolyml.so.11:_ZN10PSemaphore4InitEjj
libpolyml.so.11:_ZN10PSemaphore4WaitEv
libpolyml.so.11:_ZN10PSemaphore6SignalEv
libpolyml.so.11:_ZN10PSemaphoreC1Ev
libpolyml.so.11:_ZN10PSemaphoreC2Ev
libpolyml.so.11:_ZN10PSemaphoreD1Ev
libpolyml.so.11:_ZN10PSemaphoreD2Ev
libpolyml.so.11:_ZN10SigHandler14GarbageCollectEP11ScanAddress
libpolyml.so.11:_ZN10SigHandler4InitEv
libpolyml.so.11:_ZN10SigHandler4StopEv
libpolyml.so.11:_ZN10SortVector11AddToVectorEP10PolyObjectm
libpolyml.so.11:_ZN10SortVector11sharingTaskEP8GCTaskIdPvS2_
libpolyml.so.11:_ZN10SortVector12wordDataTaskEP8GCTaskIdPvS2_
libpolyml.so.11:_ZN10SortVector18hashAndSortAllTaskEP8GCTaskIdPvS2_
libpolyml.so.11:_ZN10SortVector8SortDataEv
libpolyml.so.11:_ZN10SortVector8sortListEP10PolyObjectmRm
libpolyml.so.11:_ZN10SpaceAlloc6NewObjEm
libpolyml.so.11:_ZN10SpaceAllocC1EPjjm
libpolyml.so.11:_ZN10SpaceAllocC2EPjjm
libpolyml.so.11:_ZN10Statistics10addCounterEijPKc
libpolyml.so.11:_ZN10Statistics11copyGCTimesERK7timevalS2_S2_
libpolyml.so.11:_ZN10Statistics12setTimeValueEimm
libpolyml.so.11:_ZN10Statistics14setUserCounterEjl
libpolyml.so.11:_ZN10Statistics15getSizeWithLockEi
libpolyml.so.11:_ZN10Statistics15setSizeWithLockEim
libpolyml.so.11:_ZN10Statistics16returnStatisticsEP8TaskDataPh
libpolyml.so.11:_ZN10Statistics18getLocalStatisticsEP8TaskData
libpolyml.so.11:_ZN10Statistics19getRemoteStatisticsEP8TaskDatam
libpolyml.so.11:_ZN10Statistics19updatePeriodicStatsEmj
libpolyml.so.11:_ZN10Statistics4InitEv
libpolyml.so.11:_ZN10Statistics7addSizeEijPKc
libpolyml.so.11:_ZN10Statistics7addTimeEijPKc
libpolyml.so.11:_ZN10Statistics7addUserEijPKc
libpolyml.so.11:_ZN10Statistics7decSizeEim
libpolyml.so.11:_ZN10Statistics7getSizeEi
libpolyml.so.11:_ZN10Statistics7incSizeEim
libpolyml.so.11:_ZN10Statistics7setSizeEim
libpolyml.so.11:_ZN10Statistics8decCountEi
libpolyml.so.11:_ZN10Statistics8incCountEi
libpolyml.so.11:_ZN10StatisticsC1Ev
libpolyml.so.11:_ZN10StatisticsC2Ev
libpolyml.so.11:_ZN10StatisticsD0Ev
libpolyml.so.11:_ZN10StatisticsD1Ev
libpolyml.so.11:_ZN10StatisticsD2Ev
libpolyml.so.11:_ZN10WaitSelect4WaitEj
libpolyml.so.11:_ZN10WaitSelectC1Ej
libpolyml.so.11:_ZN10WaitSelectC2Ej
libpolyml.so.11:_ZN11DepthVector12CompareItemsEPKPK10PolyObjectS4_
libpolyml.so.11:_ZN11DepthVector14MergeSameItemsEv
libpolyml.so.11:_ZN11DepthVector21FixLengthAndAddressesEP11ScanAddress
libpolyml.so.11:_ZN11DepthVector4SortEv
libpolyml.so.11:_ZN11DepthVector9SortRangeEPP10PolyObjectS2_
libpolyml.so.11:_ZN11RootScanner9FindSpaceEmb
libpolyml.so.11:_ZN11SaveRequest7PerformEv
libpolyml.so.11:_ZN11ScanAddress12ScanConstantEP10PolyObjectPh18ScanRelocationKind
libpolyml.so.11:_ZN11ScanAddress13ScanAddressAtEP8PolyWord
libpolyml.so.11:_ZN11ScanAddress15ScanRuntimeWordEP8PolyWord
libpolyml.so.11:_ZN11ScanAddress16GetConstantValueEPh18ScanRelocationKindP8PolyWord
libpolyml.so.11:_ZN11ScanAddress16SetConstantValueEPhP10PolyObject18ScanRelocationKind
libpolyml.so.11:_ZN11ScanAddress21ScanAddressesInObjectEP10PolyObjectm
libpolyml.so.11:_ZN11ScanAddress21ScanAddressesInRegionEP8PolyWordS1_
libpolyml.so.11:_ZN11StateLoader7PerformEv
libpolyml.so.11:_ZN11StateLoader8LoadFileEbl8PolyWord
libpolyml.so.11:_ZN11TempCStringD1Ev
libpolyml.so.11:_ZN11TempCStringD2Ev
libpolyml.so.11:_ZN11TimeValTime3addERKS_
libpolyml.so.11:_ZN11TimeValTime3subERKS_
libpolyml.so.11:_ZN11WaitInputFD4WaitEj
libpolyml.so.11:_ZN11X86TaskData11AtomicResetEP12SaveVecEntry
libpolyml.so.11:_ZN11X86TaskData12SetExceptionEP13PolyException
libpolyml.so.11:_ZN11X86TaskData12SwitchToPolyEv
libpolyml.so.11:_ZN11X86TaskData13EnterPolyCodeEv
libpolyml.so.11:_ZN11X86TaskData13InterruptCodeEv
libpolyml.so.11:_ZN11X86TaskData14CopyStackFrameEP11StackObjectmS1_m
libpolyml.so.11:_ZN11X86TaskData14GarbageCollectEP11ScanAddress
libpolyml.so.11:_ZN11X86TaskData14InitStackFrameEP8TaskDataP12SaveVecEntryS3_
libpolyml.so.11:_ZN11X86TaskData14MakeTrampolineEPPhS0_
libpolyml.so.11:_ZN11X86TaskData15AtomicIncrementEP12SaveVecEntry
libpolyml.so.11:_ZN11X86TaskData15SetMemRegistersEv
libpolyml.so.11:_ZN11X86TaskData15SetRegisterMaskEv
libpolyml.so.11:_ZN11X86TaskData16HeapOverflowTrapEPh
libpolyml.so.11:_ZN11X86TaskData16SaveMemRegistersEv
libpolyml.so.11:_ZN11X86TaskData16ScanStackAddressEP11ScanAddressR9stackItemP10StackSpace
libpolyml.so.11:_ZN11X86TaskData19AddTimeProfileCountEP10ucontext_t
libpolyml.so.11:_ZN11X86TaskData21EnterCallbackFunctionEP12SaveVecEntryS1_
libpolyml.so.11:_ZN11X86TaskData7get_regEi
libpolyml.so.11:_ZN11X86TaskDataC1Ev
libpolyml.so.11:_ZN11X86TaskDataC2Ev
libpolyml.so.11:_ZN12LoadRelocate12AddTreeRangeEPP10SpaceBTreejmm
libpolyml.so.11:_ZN12LoadRelocate12ScanConstantEP10PolyObjectPh18ScanRelocationKind
libpolyml.so.11:_ZN12LoadRelocate14RelocateObjectEP10PolyObject
libpolyml.so.11:_ZN12LoadRelocate15RelocateAddressEP10PolyObject
libpolyml.so.11:_ZN12LoadRelocate17RelocateAddressAtEP8PolyWord
libpolyml.so.11:_ZN12LoadRelocateD0Ev
libpolyml.so.11:_ZN12LoadRelocateD1Ev
libpolyml.so.11:_ZN12LoadRelocateD2Ev
libpolyml.so.11:_ZN12ModuleExport11exportStoreEv
libpolyml.so.11:_ZN12ModuleLoader7PerformEv
libpolyml.so.11:_ZN12ModuleStorer7PerformEv
libpolyml.so.11:_ZN12UnixSpecific4InitEv
libpolyml.so.11:_ZN12X86Dependent23ScanConstantsWithinCodeEP10PolyObjectS1_mP11ScanAddress
libpolyml.so.11:_ZN13LocalMemSpace9InitSpaceEP8PolyWordmb
libpolyml.so.11:_ZN13LocalMemSpaceC1EP5OSMem
libpolyml.so.11:_ZN13LocalMemSpaceC2EP5OSMem
libpolyml.so.11:_ZN13MarkableSpaceC1EP5OSMem
libpolyml.so.11:_ZN13MarkableSpaceC2EP5OSMem
libpolyml.so.11:_ZN13RecursiveScan17ScanObjectAddressEP10PolyObject
libpolyml.so.11:_ZN13RecursiveScan21ScanAddressesInObjectEP10PolyObjectm
libpolyml.so.11:_ZN13SignalRequest7PerformEv
libpolyml.so.11:_ZN13SpaceTreeTreeC1Ev
libpolyml.so.11:_ZN13SpaceTreeTreeC2Ev
libpolyml.so.11:_ZN13SpaceTreeTreeD0Ev
libpolyml.so.11:_ZN13SpaceTreeTreeD1Ev
libpolyml.so.11:_ZN13SpaceTreeTreeD2Ev
libpolyml.so.11:_ZN13ThreadScanner13TakeOwnershipEP13LocalMemSpace
libpolyml.so.11:_ZN13ThreadScanner14ScanOwnedAreasEv
libpolyml.so.11:_ZN13ThreadScanner9FindSpaceEmb
libpolyml.so.11:_ZN14ProfileRequest10getResultsEv
libpolyml.so.11:_ZN14ProfileRequest13extractAsListEP8TaskData
libpolyml.so.11:_ZN14ProfileRequest15newProfileEntryEv
libpolyml.so.11:_ZN14ProfileRequest17getProfileResultsEP8PolyWordS1_
libpolyml.so.11:_ZN14ProfileRequest7PerformEv
libpolyml.so.11:_ZN14ProfileRequestD0Ev
libpolyml.so.11:_ZN14ProfileRequestD1Ev
libpolyml.so.11:_ZN14ProfileRequestD2Ev
libpolyml.so.11:_ZN14QuickGCScanner13ScanAddressAtEP8PolyWord
libpolyml.so.11:_ZN14QuickGCScanner14FindNewAddressEP10PolyObjectmP13LocalMemSpace
libpolyml.so.11:_ZN14QuickGCScanner17ScanObjectAddressEP10PolyObject
libpolyml.so.11:_ZN14RealArithmetic4InitEv
libpolyml.so.11:_ZN14ShareDataClass11AddToVectorEmmP10PolyObject
libpolyml.so.11:_ZN14ShareDataClass12RunShareDataEP10PolyObject
libpolyml.so.11:_ZN14ShareDataClassC1Ev
libpolyml.so.11:_ZN14ShareDataClassC2Ev
libpolyml.so.11:_ZN14ShareDataClassD1Ev
libpolyml.so.11:_ZN14ShareDataClassD2Ev
libpolyml.so.11:_ZN14SpaceBTreeTreeC1Ev
libpolyml.so.11:_ZN14SpaceBTreeTreeC2Ev
libpolyml.so.11:_ZN14SpaceBTreeTreeD0Ev
libpolyml.so.11:_ZN14SpaceBTreeTreeD1Ev
libpolyml.so.11:_ZN14SpaceBTreeTreeD2Ev
libpolyml.so.11:_ZN15SaveStateExport12ScanConstantEP10PolyObjectPh18ScanRelocationKind
libpolyml.so.11:_ZN15SaveStateExport16createRelocationE8PolyWordPv
libpolyml.so.11:_ZN15SaveStateExport20setRelocationAddressEPvPm
libpolyml.so.11:_ZN16ClearWeakByteRef21ScanAddressesInObjectEP10PolyObjectm
libpolyml.so.11:_ZN16MTGCCheckWeakRef18ScanRuntimeAddressEPP10PolyObjectN11ScanAddress11RtsStrengthE
libpolyml.so.11:_ZN16MTGCCheckWeakRef21ScanAddressesInObjectEP10PolyObjectm
libpolyml.so.11:_ZN16MTGCCheckWeakRef9ScanAreasEv
libpolyml.so.11:_ZN16ProcessEnvModule14GarbageCollectEP11ScanAddress
libpolyml.so.11:_ZN16SaveFixupAddress13ScanAddressAtEP8PolyWord
libpolyml.so.11:_ZN16SaveFixupAddress13ScanCodeSpaceEP9CodeSpace
libpolyml.so.11:_ZN16SaveFixupAddress17ScanObjectAddressEP10PolyObject
libpolyml.so.11:_ZN17ExportStringTable9makeEntryEPKc
libpolyml.so.11:_ZN17ExportStringTableC1Ev
libpolyml.so.11:_ZN17ExportStringTableC2Ev
libpolyml.so.11:_ZN17ExportStringTableD1Ev
libpolyml.so.11:_ZN17ExportStringTableD2Ev
libpolyml.so.11:_ZN17MTGCProcessUpdate13ScanAddressAtEP8PolyWord
libpolyml.so.11:_ZN17MTGCProcessUpdate17ScanObjectAddressEP10PolyObject
libpolyml.so.11:_ZN17MTGCProcessUpdate18ScanRuntimeAddressEPP10PolyObjectN11ScanAddress11RtsStrengthE
libpolyml.so.11:_ZN17MTGCProcessUpdate19UpdateObjectsInAreaEP13LocalMemSpace
libpolyml.so.11:_ZN18HeapSizeParameters12RecordGCTimeENS_8__gcTimeEPKc
libpolyml.so.11:_ZN18HeapSizeParameters12costFunctionEmbb
libpolyml.so.11:_ZN18HeapSizeParameters14SetReservationEm
libpolyml.so.11:_ZN18HeapSizeParameters14getCostAndSizeERmRdb
libpolyml.so.11:_ZN18HeapSizeParameters17AddSpaceInMinorGCEmb
libpolyml.so.11:_ZN18HeapSizeParameters17RecordSharingDataEm
libpolyml.so.11:_ZN18HeapSizeParameters17SetHeapParametersEmmmj
libpolyml.so.11:_ZN18HeapSizeParameters20resetMajorTimingDataEv
libpolyml.so.11:_ZN18HeapSizeParameters20resetMinorTimingDataEv
libpolyml.so.11:_ZN18HeapSizeParameters21RunMajorGCImmediatelyEv
libpolyml.so.11:_ZN18HeapSizeParameters22AdjustSizeAfterMajorGCEm
libpolyml.so.11:_ZN18HeapSizeParameters22AdjustSizeAfterMinorGCEmm
libpolyml.so.11:_ZN18HeapSizeParameters22RecordAtStartOfMajorGCEv
libpolyml.so.11:_ZN18HeapSizeParameters23AddSpaceBeforeCopyPhaseEb
libpolyml.so.11:_ZN18HeapSizeParameters4InitEv
libpolyml.so.11:_ZN18HeapSizeParameters5FinalEv
libpolyml.so.11:_ZN18HeapSizeParametersC1Ev
libpolyml.so.11:_ZN18HeapSizeParametersC2Ev
libpolyml.so.11:_ZN18ProcessAddToVector11ProcessRootEP10PolyObject
libpolyml.so.11:_ZN18ProcessAddToVector11PushToStackEP10PolyObject
libpolyml.so.11:_ZN18ProcessAddToVector22AddObjectToDepthVectorEP10PolyObject
libpolyml.so.11:_ZN18ProcessAddToVector25AddPolyWordToDepthVectorsE8PolyWord
libpolyml.so.11:_ZN18ProcessAddToVectorD0Ev
libpolyml.so.11:_ZN18ProcessAddToVectorD1Ev
libpolyml.so.11:_ZN18ProcessAddToVectorD2Ev
libpolyml.so.11:_ZN19ProcessFixupAddress13GetNewAddressE8PolyWord
libpolyml.so.11:_ZN19ProcessFixupAddress13ScanAddressAtEP8PolyWord
libpolyml.so.11:_ZN19ProcessFixupAddress17ScanCodeAddressAtEPP10PolyObject
libpolyml.so.11:_ZN21ProcessVisitAddresses10FindBitmapE8PolyWord
libpolyml.so.11:_ZN21ProcessVisitAddresses10ShowObjectEP10PolyObject
libpolyml.so.11:_ZN21ProcessVisitAddresses17ScanObjectAddressEP10PolyObject
libpolyml.so.11:_ZN21ProcessVisitAddresses8ShowCodeEP10PolyObject
libpolyml.so.11:_ZN21ProcessVisitAddresses9ShowBytesEP10PolyObject
libpolyml.so.11:_ZN21ProcessVisitAddresses9ShowWordsEP10PolyObject
libpolyml.so.11:_ZN21ProcessVisitAddressesC1Eb
libpolyml.so.11:_ZN21ProcessVisitAddressesC2Eb
libpolyml.so.11:_ZN21ProcessVisitAddressesD0Ev
libpolyml.so.11:_ZN21ProcessVisitAddressesD1Ev
libpolyml.so.11:_ZN21ProcessVisitAddressesD2Ev
libpolyml.so.11:_ZN22RecursiveScanWithStack11PushToStackEP10PolyObjectP8PolyWord
libpolyml.so.11:_ZN22RecursiveScanWithStack12PopFromStackERP10PolyObjectRP8PolyWord
libpolyml.so.11:_ZN22RecursiveScanWithStack12StackIsEmptyEv
libpolyml.so.11:_ZN22RecursiveScanWithStackD0Ev
libpolyml.so.11:_ZN22RecursiveScanWithStackD1Ev
libpolyml.so.11:_ZN22RecursiveScanWithStackD2Ev
libpolyml.so.11:_ZN23MTGCProcessMarkPointers10markStacksE
libpolyml.so.11:_ZN23MTGCProcessMarkPointers11TestForScanEP8PolyWord
libpolyml.so.11:_ZN23MTGCProcessMarkPointers12ScanConstantEP10PolyObjectPh18ScanRelocationKind
libpolyml.so.11:_ZN23MTGCProcessMarkPointers13StackOverflowEP10PolyObject
libpolyml.so.11:_ZN23MTGCProcessMarkPointers16MarkPointersTaskEP8GCTaskIdPvS2_
libpolyml.so.11:_ZN23MTGCProcessMarkPointers17ScanObjectAddressEP10PolyObject
libpolyml.so.11:_ZN23MTGCProcessMarkPointers18MarkAndTestForScanEP8PolyWord
libpolyml.so.11:_ZN23MTGCProcessMarkPointers18ScanRuntimeAddressEPP10PolyObjectN11ScanAddress11RtsStrengthE
libpolyml.so.11:_ZN23MTGCProcessMarkPointers21ScanAddressesInObjectEP10PolyObjectm
libpolyml.so.11:_ZN23MTGCProcessMarkPointers22RescanForStackOverflowEv
libpolyml.so.11:_ZN23MTGCProcessMarkPointers5ResetEv
libpolyml.so.11:_ZN23MTGCProcessMarkPointers6nInUseE
libpolyml.so.11:_ZN23MTGCProcessMarkPointers7ForkNewEP10PolyObject
libpolyml.so.11:_ZN23MTGCProcessMarkPointers8nThreadsE
libpolyml.so.11:_ZN23MTGCProcessMarkPointers9MarkRootsEv
libpolyml.so.11:_ZN23MTGCProcessMarkPointers9stackLockE
libpolyml.so.11:_ZN23MTGCProcessMarkPointersC1Ev
libpolyml.so.11:_ZN23MTGCProcessMarkPointersC2Ev
libpolyml.so.11:_ZN26DepthVectorWithFixedLength11AddToVectorEmP10PolyObject
libpolyml.so.11:_ZN26DepthVectorWithFixedLength18RestoreLengthWordsEv
libpolyml.so.11:_ZN29DepthVectorWithVariableLength11AddToVectorEmP10PolyObject
libpolyml.so.11:_ZN29DepthVectorWithVariableLength18RestoreLengthWordsEv
libpolyml.so.11:_ZN29DepthVectorWithVariableLength25RestoreForwardingPointersEv
libpolyml.so.11:_ZN5OSMem10InitialiseEmPPv
libpolyml.so.11:_ZN5OSMem14SetPermissionsEPvmj
libpolyml.so.11:_ZN5OSMem4FreeEPvm
libpolyml.so.11:_ZN5OSMem8AllocateERmj
libpolyml.so.11:_ZN5PLock4LockEv
libpolyml.so.11:_ZN5PLock6UnlockEv
libpolyml.so.11:_ZN5PLock7TrylockEv
libpolyml.so.11:_ZN5PLockC1EPKc
libpolyml.so.11:_ZN5PLockC2EPKc
libpolyml.so.11:_ZN5PLockD1Ev
libpolyml.so.11:_ZN5PLockD2Ev
libpolyml.so.11:_ZN6Bitmap6CreateEm
libpolyml.so.11:_ZN6Bitmap7DestroyEv
libpolyml.so.11:_ZN6Bitmap7SetBitsEmm
libpolyml.so.11:_ZN6Bitmap9ClearBitsEmm
libpolyml.so.11:_ZN6BitmapD1Ev
libpolyml.so.11:_ZN6BitmapD2Ev
libpolyml.so.11:_ZN6MemMgr10InitialiseEv
libpolyml.so.11:_ZN6MemMgr10RemoveTreeEP8MemSpaceP8PolyWordS3_
libpolyml.so.11:_ZN6MemMgr12AddCodeSpaceEP9CodeSpace
libpolyml.so.11:_ZN6MemMgr12AddTreeRangeEPP9SpaceTreeP8MemSpacemm
libpolyml.so.11:_ZN6MemMgr12NewCodeSpaceEm
libpolyml.so.11:_ZN6MemMgr13AddLocalSpaceEP13LocalMemSpace
libpolyml.so.11:_ZN6MemMgr13NewLocalSpaceEmb
libpolyml.so.11:_ZN6MemMgr13NewStackSpaceEm
libpolyml.so.11:_ZN6MemMgr13SpaceForIndexEj
libpolyml.so.11:_ZN6MemMgr14AllocCodeSpaceEm
libpolyml.so.11:_ZN6MemMgr14AllocHeapSpaceEmRmb
libpolyml.so.11:_ZN6MemMgr14FindCodeObjectEPKh
libpolyml.so.11:_ZN6MemMgr14NewExportSpaceEmbbb
libpolyml.so.11:_ZN6MemMgr15FillUnusedSpaceEP8PolyWordm
libpolyml.so.11:_ZN6MemMgr15RemoveTreeRangeEPP9SpaceTreeP8MemSpacemm
libpolyml.so.11:_ZN6MemMgr15ReportHeapSizesEPKc
libpolyml.so.11:_ZN6MemMgr16AllocatedInAllocEv
libpolyml.so.11:_ZN6MemMgr16DeleteLocalSpaceERN9__gnu_cxx17__normal_iteratorIPP13LocalMemSpaceSt6vectorIS3_SaIS3_EEEE
libpolyml.so.11:_ZN6MemMgr16DeleteStackSpaceEP10StackSpace
libpolyml.so.11:_ZN6MemMgr16ProtectImmutableEb
libpolyml.so.11:_ZN6MemMgr17GetFreeAllocSpaceEv
libpolyml.so.11:_ZN6MemMgr17GrowOrShrinkStackEP8TaskDatam
libpolyml.so.11:_ZN6MemMgr17NewPermanentSpaceEP8PolyWordmjjj
libpolyml.so.11:_ZN6MemMgr17RemoveEmptyLocalsEv
libpolyml.so.11:_ZN6MemMgr18CheckForAllocationEm
libpolyml.so.11:_ZN6MemMgr18DeleteExportSpacesEv
libpolyml.so.11:_ZN6MemMgr18DemoteImportSpacesEv
libpolyml.so.11:_ZN6MemMgr19PromoteExportSpacesEj
libpolyml.so.11:_ZN6MemMgr20RemoveEmptyCodeAreasEv
libpolyml.so.11:_ZN6MemMgr21CreateAllocationSpaceEm
libpolyml.so.11:_ZN6MemMgr22RemoveExcessAllocationEm
libpolyml.so.11:_ZN6MemMgr22RemoveProfilingBitmapsEv
libpolyml.so.11:_ZN6MemMgr25AllocateNewPermanentSpaceEmjjj
libpolyml.so.11:_ZN6MemMgr29ConvertAllocationSpaceToLocalEP13LocalMemSpace
libpolyml.so.11:_ZN6MemMgr32CompletePermanentSpaceAllocationEP17PermanentMemSpace
libpolyml.so.11:_ZN6MemMgr7AddTreeEP8MemSpaceP8PolyWordS3_
libpolyml.so.11:_ZN6MemMgrC1Ev
libpolyml.so.11:_ZN6MemMgrC2Ev
libpolyml.so.11:_ZN6MemMgrD1Ev
libpolyml.so.11:_ZN6MemMgrD2Ev
libpolyml.so.11:_ZN6Timing4InitEv
libpolyml.so.11:_ZN6Waiter13defaultWaiterE
libpolyml.so.11:_ZN6Waiter4WaitEj
libpolyml.so.11:_ZN7PExport10printValueE8PolyWord
libpolyml.so.11:_ZN7PExport11exportStoreEv
libpolyml.so.11:_ZN7PExport11printObjectEP10PolyObject
libpolyml.so.11:_ZN7PExport12ScanConstantEP10PolyObjectPh18ScanRelocationKind
libpolyml.so.11:_ZN7PExport12printAddressEPv
libpolyml.so.11:_ZN7PExport8getIndexEP10PolyObject
libpolyml.so.11:_ZN7PExportC1Ev
libpolyml.so.11:_ZN7PExportC2Ev
libpolyml.so.11:_ZN7PExportD0Ev
libpolyml.so.11:_ZN7PExportD1Ev
libpolyml.so.11:_ZN7PExportD2Ev
libpolyml.so.11:_ZN7PImport8DoImportEv
libpolyml.so.11:_ZN7PImport8GetValueEP8PolyWord
libpolyml.so.11:_ZN7PImport9ReadValueEP10PolyObjectm
libpolyml.so.11:_ZN7PImportC1Ev
libpolyml.so.11:_ZN7PImportC2Ev
libpolyml.so.11:_ZN7PImportD1Ev
libpolyml.so.11:_ZN7PImportD2Ev
libpolyml.so.11:_ZN7PolyFFI14GarbageCollectEP11ScanAddress
libpolyml.so.11:_ZN7SaveVec4pushE8PolyWord
libpolyml.so.11:_ZN7SaveVec5resetEP12SaveVecEntry
libpolyml.so.11:_ZN7SaveVec6gcScanEP11ScanAddress
libpolyml.so.11:_ZN7SaveVecC1Ev
libpolyml.so.11:_ZN7SaveVecC2Ev
libpolyml.so.11:_ZN7SaveVecD1Ev
libpolyml.so.11:_ZN7SaveVecD2Ev
libpolyml.so.11:_ZN7WaitNetC1Eib
libpolyml.so.11:_ZN7WaitNetC2Eib
libpolyml.so.11:_ZN8CopyScan10initialiseEb
libpolyml.so.11:_ZN8CopyScan11ScanAddressEPP10PolyObject
libpolyml.so.11:_ZN8CopyScan13ScanAddressAtEP8PolyWord
libpolyml.so.11:_ZN8CopyScan17ScanCodeAddressAtEPP10PolyObject
libpolyml.so.11:_ZN8CopyScan17ScanObjectAddressEP10PolyObject
libpolyml.so.11:_ZN8CopyScanC1Ej
libpolyml.so.11:_ZN8CopyScanC2Ej
libpolyml.so.11:_ZN8CopyScanD0Ev
libpolyml.so.11:_ZN8CopyScanD1Ev
libpolyml.so.11:_ZN8CopyScanD2Ev
libpolyml.so.11:_ZN8Exporter13relocateValueEP8PolyWord
libpolyml.so.11:_ZN8Exporter14relocateObjectEP10PolyObject
libpolyml.so.11:_ZN8Exporter8findAreaEPv
libpolyml.so.11:_ZN8Exporter9RunExportEP10PolyObject
libpolyml.so.11:_ZN8ExporterC1Ej
libpolyml.so.11:_ZN8ExporterC2Ej
libpolyml.so.11:_ZN8ExporterD0Ev
libpolyml.so.11:_ZN8ExporterD1Ev
libpolyml.so.11:_ZN8ExporterD2Ev
libpolyml.so.11:_ZN8MemSpaceC1EP5OSMem
libpolyml.so.11:_ZN8MemSpaceC2EP5OSMem
libpolyml.so.11:_ZN8MemSpaceD0Ev
libpolyml.so.11:_ZN8MemSpaceD1Ev
libpolyml.so.11:_ZN8MemSpaceD2Ev
libpolyml.so.11:_ZN8PCondVar4WaitEP5PLock
libpolyml.so.11:_ZN8PCondVar6SignalEv
libpolyml.so.11:_ZN8PCondVar7WaitForEP5PLockj
libpolyml.so.11:_ZN8PCondVar9WaitUntilEP5PLockPK8timespec
libpolyml.so.11:_ZN8PCondVarC1Ev
libpolyml.so.11:_ZN8PCondVarC2Ev
libpolyml.so.11:_ZN8PCondVarD1Ev
libpolyml.so.11:_ZN8PCondVarD2Ev
libpolyml.so.11:_ZN8TaskData14GarbageCollectEP11ScanAddress
libpolyml.so.11:_ZN8TaskData15FillUnusedSpaceEv
libpolyml.so.11:_ZN8TaskDataC1Ev
libpolyml.so.11:_ZN8TaskDataC2Ev
libpolyml.so.11:_ZN8TaskDataD0Ev
libpolyml.so.11:_ZN8TaskDataD1Ev
libpolyml.so.11:_ZN8TaskDataD2Ev
libpolyml.so.11:_ZN8WaitPoll4WaitEj
libpolyml.so.11:_ZN8WaitPollC1EmP6pollfdj
libpolyml.so.11:_ZN8WaitPollC2EmP6pollfdj
libpolyml.so.11:_ZN9CodeSpaceC1EP8PolyWordmP5OSMem
libpolyml.so.11:_ZN9CodeSpaceC2EP8PolyWordmP5OSMem
libpolyml.so.11:_ZN9ELFExport11exportStoreEv
libpolyml.so.11:_ZN9ELFExport11writeSymbolEPKclliii
libpolyml.so.11:_ZN9ELFExport12ScanConstantEP10PolyObjectPh18ScanRelocationKind
libpolyml.so.11:_ZN9ELFExport15writeRelocationEmPvjb
libpolyml.so.11:_ZN9ELFExport16createRelocationE8PolyWordPv
libpolyml.so.11:_ZN9ELFExport20addExternalReferenceEPvPKcb
libpolyml.so.11:_ZN9ELFExport20makeStringTableEntryEPKcP17ExportStringTable
libpolyml.so.11:_ZN9ELFExport20setRelocationAddressEPvPm
libpolyml.so.11:_ZN9ELFExport23createStructsRelocationEjmm
libpolyml.so.11:_ZN9ELFExport9alignFileEi
libpolyml.so.11:_ZN9GraveYardD1Ev
libpolyml.so.11:_ZN9GraveYardD2Ev
libpolyml.so.11:_ZN9Processes10ForkThreadEP8TaskDataP12SaveVecEntryS3_8PolyWordS4_
libpolyml.so.11:_ZN9Processes10MutexBlockEP8TaskDataP12SaveVecEntry
libpolyml.so.11:_ZN9Processes10ThreadExitEP8TaskData
libpolyml.so.11:_ZN9Processes10WakeThreadEP10PolyObject
libpolyml.so.11:_ZN9Processes11ForkFromRTSEP8TaskDataP12SaveVecEntryS3_
libpolyml.so.11:_ZN9Processes11MakeRequestEP8TaskData14ThreadRequests
libpolyml.so.11:_ZN9Processes11MutexUnlockEP8TaskDataP12SaveVecEntry
libpolyml.so.11:_ZN9Processes12WaitInfiniteEP8TaskDataP12SaveVecEntry
libpolyml.so.11:_ZN9Processes13SignalArrivedEv
libpolyml.so.11:_ZN9Processes13StopProfilingEv
libpolyml.so.11:_ZN9Processes13TestAnyEventsEP8TaskData
libpolyml.so.11:_ZN9Processes13WaitForSignalEP8TaskDataP5PLock
libpolyml.so.11:_ZN9Processes13WaitUntilTimeEP8TaskDataP12SaveVecEntryS3_
libpolyml.so.11:_ZN9Processes14GarbageCollectEP11ScanAddress
libpolyml.so.11:_ZN9Processes14StartProfilingEv
libpolyml.so.11:_ZN9Processes14ThreadDispatchEP8TaskDataP12SaveVecEntryS3_
libpolyml.so.11:_ZN9Processes15BeginRootThreadEP10PolyObject
libpolyml.so.11:_ZN9Processes15MakeRootRequestEP8TaskDataP17MainThreadRequest
libpolyml.so.11:_ZN9Processes16ThreadPauseForIOEP8TaskDataP6Waiter
libpolyml.so.11:_ZN9Processes17CreateNewTaskDataEP12SaveVecEntryS1_S1_8PolyWord
libpolyml.so.11:_ZN9Processes17ThreadUseMLMemoryEP8TaskData
libpolyml.so.11:_ZN9Processes18BroadcastInterruptEv
libpolyml.so.11:_ZN9Processes18RequestProcessExitEi
libpolyml.so.11:_ZN9Processes19FindAllocationSpaceEP8TaskDatamb
libpolyml.so.11:_ZN9Processes19StartProfilingTimerEv
libpolyml.so.11:_ZN9Processes20GetTaskDataForThreadEv
libpolyml.so.11:_ZN9Processes21ProcessAsynchRequestsEP8TaskData
libpolyml.so.11:_ZN9Processes21ThreadReleaseMLMemoryEP8TaskData
libpolyml.so.11:_ZN9Processes23TestSynchronousRequestsEP8TaskData
libpolyml.so.11:_ZN9Processes30ThreadUseMLMemoryWithSchedLockEP8TaskData
libpolyml.so.11:_ZN9Processes34ThreadReleaseMLMemoryWithSchedLockEP8TaskData
libpolyml.so.11:_ZN9Processes4InitEv
libpolyml.so.11:_ZN9Processes4StopEv
libpolyml.so.11:_ZN9ProcessesC1Ev
libpolyml.so.11:_ZN9ProcessesC2Ev
libpolyml.so.11:_ZN9Profiling14GarbageCollectEP11ScanAddress
libpolyml.so.11:_ZN9Profiling4InitEv
libpolyml.so.11:_ZN9Rescanner9ScanSpaceEP13MarkableSpace
libpolyml.so.11:_ZN9RtsModule14RegisterModuleEv
libpolyml.so.11:_ZN9X86Module14GarbageCollectEP11ScanAddress
libpolyml.so.11:_ZNK10SortVector6SharedEv
libpolyml.so.11:_ZNK18HeapSizeParameters10getGCStimeEP8TaskData
libpolyml.so.11:_ZNK18HeapSizeParameters10getGCUtimeEP8TaskData
libpolyml.so.11:_ZNK6Bitmap11FindLastSetEm
libpolyml.so.11:_ZNK6Bitmap12CountSetBitsEm
libpolyml.so.11:_ZNK6Bitmap13CountZeroBitsEmm
libpolyml.so.11:_ZNK6Bitmap8FindFreeEmmm
libpolyml.so.11:_ZThn64_N15SaveStateExport12ScanConstantEP10PolyObjectPh18ScanRelocationKind
libpolyml.so.11:_ZThn64_N7PExport12ScanConstantEP10PolyObjectPh18ScanRelocationKind
libpolyml.so.11:_ZThn64_N7PExportD0Ev
libpolyml.so.11:_ZThn64_N7PExportD1Ev
libpolyml.so.11:_ZThn64_N9ELFExport12ScanConstantEP10PolyObjectPh18ScanRelocationKind
libpolyml.so.11:_ZThn8_N9Processes14GarbageCollectEP11ScanAddress
libpolyml.so.11:_ZThn8_N9Processes4InitEv
libpolyml.so.11:_ZThn8_N9Processes4StopEv
libpolyml.so.11:af_table
libpolyml.so.11:arbitraryPrecisionEPT
libpolyml.so.11:basicIOEPT
libpolyml.so.11:convertedWeak
libpolyml.so.11:debugOptions
libpolyml.so.11:exportTimeStamp
libpolyml.so.11:exporterEPT
libpolyml.so.11:gHeapSizeParameters
libpolyml.so.11:gMem
libpolyml.so.11:gSaveVec
libpolyml.so.11:gethex
libpolyml.so.11:globalStats
libpolyml.so.11:globalTask
libpolyml.so.11:gpTaskFarm
libpolyml.so.11:heapsizingOption
libpolyml.so.11:hierarchyTable
libpolyml.so.11:machineDependent
libpolyml.so.11:mainThreadPhase
libpolyml.so.11:negInf
libpolyml.so.11:negInfF
libpolyml.so.11:networkingEPT
libpolyml.so.11:notANumber
libpolyml.so.11:notANumberF
libpolyml.so.11:objSizeEPT
libpolyml.so.11:osSpecificEPT
libpolyml.so.11:polyFFIEPT
libpolyml.so.11:polySpecificEPT
libpolyml.so.11:polyStderr
libpolyml.so.11:polyStdout
libpolyml.so.11:poly_dtoa
libpolyml.so.11:poly_freedtoa
libpolyml.so.11:polymain
libpolyml.so.11:posInf
libpolyml.so.11:posInfF
libpolyml.so.11:processEnvEPT
libpolyml.so.11:processes
libpolyml.so.11:processesEPT
libpolyml.so.11:profileMode
libpolyml.so.11:profilingEPT
libpolyml.so.11:realsEPT
libpolyml.so.11:receivedSignalCount
libpolyml.so.11:rtsCallEPT
libpolyml.so.11:runTimeEPT
libpolyml.so.11:savestateEPT
libpolyml.so.11:shareDataEPT
libpolyml.so.11:sigHandlerEPT
libpolyml.so.11:sk_table
libpolyml.so.11:statisticsEPT
libpolyml.so.11:timingEPT
libpolyml.so.11:userOptions
libpolyml.so.11:xwindowsEPT
