libfmt.so.7:_ZN3fmt2v711getpagesizeEv
libfmt.so.7:_ZN3fmt2v712format_errorD0Ev
libfmt.so.7:_ZN3fmt2v712format_errorD1Ev
libfmt.so.7:_ZN3fmt2v712format_errorD2Ev
libfmt.so.7:_ZN3fmt2v712system_error4initEiNS0_17basic_string_viewIcEENS0_11format_argsE
libfmt.so.7:_ZN3fmt2v712system_errorD0Ev
libfmt.so.7:_ZN3fmt2v712system_errorD1Ev
libfmt.so.7:_ZN3fmt2v712system_errorD2Ev
libfmt.so.7:_ZN3fmt2v713buffered_file5closeEv
libfmt.so.7:_ZN3fmt2v713buffered_fileC1ENS0_18basic_cstring_viewIcEES3_
libfmt.so.7:_ZN3fmt2v713buffered_fileC2ENS0_18basic_cstring_viewIcEES3_
libfmt.so.7:_ZN3fmt2v713buffered_fileD1Ev
libfmt.so.7:_ZN3fmt2v713buffered_fileD2Ev
libfmt.so.7:_ZN3fmt2v719format_system_errorERNS0_6detail6bufferIcEEiNS0_17basic_string_viewIcEE
libfmt.so.7:_ZN3fmt2v719report_system_errorEiNS0_17basic_string_viewIcEE
libfmt.so.7:_ZN3fmt2v724instantiate_format_floatE
libfmt.so.7:_ZN3fmt2v74file3dupEi
libfmt.so.7:_ZN3fmt2v74file4dup2Ei
libfmt.so.7:_ZN3fmt2v74file4dup2EiRNS0_10error_codeE
libfmt.so.7:_ZN3fmt2v74file4pipeERS1_S2_
libfmt.so.7:_ZN3fmt2v74file4readEPvm
libfmt.so.7:_ZN3fmt2v74file5closeEv
libfmt.so.7:_ZN3fmt2v74file5writeEPKvm
libfmt.so.7:_ZN3fmt2v74file6fdopenEPKc
libfmt.so.7:_ZN3fmt2v74fileC1ENS0_18basic_cstring_viewIcEEi
libfmt.so.7:_ZN3fmt2v74fileC2ENS0_18basic_cstring_viewIcEEi
libfmt.so.7:_ZN3fmt2v74fileD1Ev
libfmt.so.7:_ZN3fmt2v74fileD2Ev
libfmt.so.7:_ZN3fmt2v76detail11assert_failEPKciS3_
libfmt.so.7:_ZN3fmt2v76detail12count_digitsILj4ENS1_16fallback_uintptrEEEiT0_
libfmt.so.7:_ZN3fmt2v76detail12report_errorEPFvRNS1_6bufferIcEEiNS0_17basic_string_viewIcEEEiS6_
libfmt.so.7:_ZN3fmt2v76detail13error_handler8on_errorEPKc
libfmt.so.7:_ZN3fmt2v76detail13utf8_to_utf16C1ENS0_17basic_string_viewIcEE
libfmt.so.7:_ZN3fmt2v76detail13utf8_to_utf16C2ENS0_17basic_string_viewIcEE
libfmt.so.7:_ZN3fmt2v76detail17format_error_codeERNS1_6bufferIcEEiNS0_17basic_string_viewIcEE
libfmt.so.7:_ZN3fmt2v76detail7vformatB5cxx11ENS0_17basic_string_viewIcEENS0_11format_argsE
libfmt.so.7:_ZN3fmt2v76vprintENS0_17basic_string_viewIcEENS0_11format_argsE
libfmt.so.7:_ZN3fmt2v76vprintEP8_IO_FILENS0_17basic_string_viewIcEENS0_11format_argsE
libfmt.so.7:_ZN3fmt2v77ostream4growEm
libfmt.so.7:_ZNK3fmt2v713buffered_file6filenoEv
libfmt.so.7:_ZNK3fmt2v74file4sizeEv
