jellyfinmediaplayer:_IO_stdin_used
jellyfinmediaplayer:_Z15ShowLicenseInfov
jellyfinmediaplayer:_Z16convertCodecList8QVariant9CodecType
jellyfinmediaplayer:_Z16detectOpenGLLatev
jellyfinmediaplayer:_Z17detectOpenGLEarlyv
jellyfinmediaplayer:_Z24qInitResources_resourcesv
jellyfinmediaplayer:_Z26appendCommandLineArgumentsiPPcRK11QStringList
jellyfinmediaplayer:_Z27qCleanupResources_resourcesv
jellyfinmediaplayer:_ZN10Downloader11qt_metacallEN11QMetaObject4CallEiPPv
jellyfinmediaplayer:_ZN10Downloader11qt_metacastEPKc
jellyfinmediaplayer:_ZN10Downloader15networkFinishedEP13QNetworkReply
jellyfinmediaplayer:_ZN10Downloader16downloadProgressExx
jellyfinmediaplayer:_ZN10Downloader16staticMetaObjectE
jellyfinmediaplayer:_ZN10Downloader4doneE8QVariantbRK10QByteArray
jellyfinmediaplayer:_ZN10DownloaderC1E8QVariantRK4QUrlRK5QListI5QPairI7QStringS6_EEP7QObject
jellyfinmediaplayer:_ZN10DownloaderC2E8QVariantRK4QUrlRK5QListI5QPairI7QStringS6_EEP7QObject
jellyfinmediaplayer:_ZN11EventFilter11eventFilterEP7QObjectP6QEvent
jellyfinmediaplayer:_ZN11EventFilter11qt_metacallEN11QMetaObject4CallEiPPv
jellyfinmediaplayer:_ZN11EventFilter11qt_metacastEPKc
jellyfinmediaplayer:_ZN11EventFilter16staticMetaObjectE
jellyfinmediaplayer:_ZN11InputSocket11qt_metacallEN11QMetaObject4CallEiPPv
jellyfinmediaplayer:_ZN11InputSocket11qt_metacastEPKc
jellyfinmediaplayer:_ZN11InputSocket15clientConnectedEP12QLocalSocket
jellyfinmediaplayer:_ZN11InputSocket15messageReceivedERK8QVariant
jellyfinmediaplayer:_ZN11InputSocket16staticMetaObjectE
jellyfinmediaplayer:_ZN11InputSocket9initInputEv
jellyfinmediaplayer:_ZN12ErrorMessage11qt_metacallEN11QMetaObject4CallEiPPv
jellyfinmediaplayer:_ZN12ErrorMessage11qt_metacastEPKc
jellyfinmediaplayer:_ZN12ErrorMessage16staticMetaObjectE
jellyfinmediaplayer:_ZN12ErrorMessageC1ERK7QStringb
jellyfinmediaplayer:_ZN12ErrorMessageC2ERK7QStringb
jellyfinmediaplayer:_ZN12InputMapping11mapToActionERK7QStringS2_
jellyfinmediaplayer:_ZN12InputMapping11qt_metacallEN11QMetaObject4CallEiPPv
jellyfinmediaplayer:_ZN12InputMapping11qt_metacastEPKc
jellyfinmediaplayer:_ZN12InputMapping12loadMappingsEv
jellyfinmediaplayer:_ZN12InputMapping14mappingChangedEv
jellyfinmediaplayer:_ZN12InputMapping15loadMappingFileERK7QStringR5QPairIS0_4QMapIS0_8QVariantEE
jellyfinmediaplayer:_ZN12InputMapping16staticMetaObjectE
jellyfinmediaplayer:_ZN12InputMapping20loadMappingDirectoryERK7QStringb
jellyfinmediaplayer:_ZN12InputMapping9dirChangeEv
jellyfinmediaplayer:_ZN12InputMappingC1EP7QObject
jellyfinmediaplayer:_ZN12InputMappingC2EP7QObject
jellyfinmediaplayer:_ZN13CodecsFetcher11qt_metacallEN11QMetaObject4CallEiPPv
jellyfinmediaplayer:_ZN13CodecsFetcher11qt_metacastEPKc
jellyfinmediaplayer:_ZN13CodecsFetcher13installCodecsERK5QListI11CodecDriverE
jellyfinmediaplayer:_ZN13CodecsFetcher16staticMetaObjectE
jellyfinmediaplayer:_ZN13CodecsFetcher17codecDownloadDoneE8QVariantbRK10QByteArray
jellyfinmediaplayer:_ZN13CodecsFetcher18codecNeedsDownloadERK11CodecDriver
jellyfinmediaplayer:_ZN13CodecsFetcher21codecInfoDownloadDoneE8QVariantbRK10QByteArray
jellyfinmediaplayer:_ZN13CodecsFetcher21processCodecInfoReplyERK8QVariantRK10QByteArray
jellyfinmediaplayer:_ZN13CodecsFetcher24processCodecDownloadDoneERK8QVariantRK10QByteArray
jellyfinmediaplayer:_ZN13CodecsFetcher4doneEPS_
jellyfinmediaplayer:_ZN13CodecsFetcher8startEAEEv
jellyfinmediaplayer:_ZN13CodecsFetcher9startNextEv
jellyfinmediaplayer:_ZN13InputKeyboard11qt_metacallEN11QMetaObject4CallEiPPv
jellyfinmediaplayer:_ZN13InputKeyboard11qt_metacastEPKc
jellyfinmediaplayer:_ZN13InputKeyboard16staticMetaObjectE
jellyfinmediaplayer:_ZN13PlatformUtils14isProcessAliveEx
jellyfinmediaplayer:_ZN13QsDebugOutput6outputERK7QString
jellyfinmediaplayer:_ZN13SettingsValue11qt_metacallEN11QMetaObject4CallEiPPv
jellyfinmediaplayer:_ZN13SettingsValue11qt_metacastEPKc
jellyfinmediaplayer:_ZN13SettingsValue16staticMetaObjectE
jellyfinmediaplayer:_ZN13SignalManager11g_sigtermFdE
jellyfinmediaplayer:_ZN13SignalManager11qt_metacallEN11QMetaObject4CallEiPPv
jellyfinmediaplayer:_ZN13SignalManager11qt_metacastEPKc
jellyfinmediaplayer:_ZN13SignalManager12handleSignalEv
jellyfinmediaplayer:_ZN13SignalManager13setupHandlersEv
jellyfinmediaplayer:_ZN13SignalManager13signalHandlerEi
jellyfinmediaplayer:_ZN13SignalManager16closeApplicationEv
jellyfinmediaplayer:_ZN13SignalManager16staticMetaObjectE
jellyfinmediaplayer:_ZN13SignalManagerC1EP15QGuiApplication
jellyfinmediaplayer:_ZN13SignalManagerC2EP15QGuiApplication
jellyfinmediaplayer:_ZN14DisplayManager10initializeEv
jellyfinmediaplayer:_ZN14DisplayManager11qt_metacallEN11QMetaObject4CallEiPPv
jellyfinmediaplayer:_ZN14DisplayManager11qt_metacastEPKc
jellyfinmediaplayer:_ZN14DisplayManager12findBestModeEi
jellyfinmediaplayer:_ZN14DisplayManager13findBestMatchEiR16DMMatchMediaInfo
jellyfinmediaplayer:_ZN14DisplayManager14isValidDisplayEi
jellyfinmediaplayer:_ZN14DisplayManager16isRateMultipleOfEffb
jellyfinmediaplayer:_ZN14DisplayManager16staticMetaObjectE
jellyfinmediaplayer:_ZN14DisplayManager18isValidDisplayModeEii
jellyfinmediaplayer:_ZN14DisplayManager19getCurrentVideoModeEi
jellyfinmediaplayer:_ZN14DisplayManager19getDisplayFromPointERK6QPoint
jellyfinmediaplayer:_ZN14DisplayManagerC1EP7QObject
jellyfinmediaplayer:_ZN14DisplayManagerC2EP7QObject
jellyfinmediaplayer:_ZN14InputCECWorker10CecCommandEPvPKN3CEC11cec_commandE
jellyfinmediaplayer:_ZN14InputCECWorker11openAdapterEv
jellyfinmediaplayer:_ZN14InputCECWorker11qt_metacallEN11QMetaObject4CallEiPPv
jellyfinmediaplayer:_ZN14InputCECWorker11qt_metacastEPKc
jellyfinmediaplayer:_ZN14InputCECWorker12checkAdapterEv
jellyfinmediaplayer:_ZN14InputCECWorker12closeAdapterEv
jellyfinmediaplayer:_ZN14InputCECWorker13CecLogMessageEPvPKN3CEC15cec_log_messageE
jellyfinmediaplayer:_ZN14InputCECWorker13receivedInputERK7QStringS2_N9InputBase13InputkeyStateE
jellyfinmediaplayer:_ZN14InputCECWorker16getCommandStringEN3CEC21cec_user_control_codeE
jellyfinmediaplayer:_ZN14InputCECWorker16staticMetaObjectE
jellyfinmediaplayer:_ZN14InputCECWorker17sendReceivedInputERK7QStringS2_N9InputBase13InputkeyStateE
jellyfinmediaplayer:_ZN14InputCECWorker20getCommandParamsListEPKN3CEC11cec_commandE
jellyfinmediaplayer:_ZN14InputCECWorker4initEv
jellyfinmediaplayer:_ZN14InputCECWorker8CecAlertEPvN3CEC12libcec_alertENS1_16libcec_parameterE
jellyfinmediaplayer:_ZN14InputCECWorker8closeCecEv
jellyfinmediaplayer:_ZN14InputComponent10remapInputERK7QStringS2_N9InputBase13InputkeyStateE
jellyfinmediaplayer:_ZN14InputComponent10sendActionE7QString
jellyfinmediaplayer:_ZN14InputComponent11qt_metacallEN11QMetaObject4CallEiPPv
jellyfinmediaplayer:_ZN14InputComponent11qt_metacastEPKc
jellyfinmediaplayer:_ZN14InputComponent12handleActionERK7QString
jellyfinmediaplayer:_ZN14InputComponent13receivedInputEv
jellyfinmediaplayer:_ZN14InputComponent14executeActionsERK11QStringList
jellyfinmediaplayer:_ZN14InputComponent16cancelAutoRepeatEv
jellyfinmediaplayer:_ZN14InputComponent16staticMetaObjectE
jellyfinmediaplayer:_ZN14InputComponent19componentInitializeEv
jellyfinmediaplayer:_ZN14InputComponent19registerHostCommandERK7QStringP7QObjectPKc
jellyfinmediaplayer:_ZN14InputComponent19registerHostCommandERK7QStringSt8functionIFvvEE
jellyfinmediaplayer:_ZN14InputComponent8addInputEP9InputBase
jellyfinmediaplayer:_ZN14InputComponent9hostInputERK11QStringList
jellyfinmediaplayer:_ZN14InputComponentC1EP7QObject
jellyfinmediaplayer:_ZN14InputComponentC2EP7QObject
jellyfinmediaplayer:_ZN14InputSDLWorker10initializeEv
jellyfinmediaplayer:_ZN14InputSDLWorker11qt_metacallEN11QMetaObject4CallEiPPv
jellyfinmediaplayer:_ZN14InputSDLWorker11qt_metacastEPKc
jellyfinmediaplayer:_ZN14InputSDLWorker13receivedInputERK7QStringS2_N9InputBase13InputkeyStateE
jellyfinmediaplayer:_ZN14InputSDLWorker16staticMetaObjectE
jellyfinmediaplayer:_ZN14InputSDLWorker19refreshJoystickListEv
jellyfinmediaplayer:_ZN14InputSDLWorker3runEv
jellyfinmediaplayer:_ZN14InputSDLWorker5closeEv
jellyfinmediaplayer:_ZN14InputSDLWorker9nameForIdEi
jellyfinmediaplayer:_ZN14KonvergoWindow11qt_metacallEN11QMetaObject4CallEiPPv
jellyfinmediaplayer:_ZN14KonvergoWindow11qt_metacastEPKc
jellyfinmediaplayer:_ZN14KonvergoWindow11resizeEventEP12QResizeEvent
jellyfinmediaplayer:_ZN14KonvergoWindow11toggleDebugEv
jellyfinmediaplayer:_ZN14KonvergoWindow12loadGeometryEv
jellyfinmediaplayer:_ZN14KonvergoWindow12saveGeometryEv
jellyfinmediaplayer:_ZN14KonvergoWindow13RegisterClassEv
jellyfinmediaplayer:_ZN14KonvergoWindow13closingWindowEv
jellyfinmediaplayer:_ZN14KonvergoWindow13fitsInScreensERK5QRect
jellyfinmediaplayer:_ZN14KonvergoWindow13focusOutEventEP11QFocusEvent
jellyfinmediaplayer:_ZN14KonvergoWindow13onScreenAddedEP7QScreen
jellyfinmediaplayer:_ZN14KonvergoWindow13setFullScreenEb
jellyfinmediaplayer:_ZN14KonvergoWindow13toggleWebModeEv
jellyfinmediaplayer:_ZN14KonvergoWindow13updateScreensEv
jellyfinmediaplayer:_ZN14KonvergoWindow13webUrlChangedEv
jellyfinmediaplayer:_ZN14KonvergoWindow14loadLastScreenEv
jellyfinmediaplayer:_ZN14KonvergoWindow14setAlwaysOnTopEb
jellyfinmediaplayer:_ZN14KonvergoWindow15onScreenRemovedEP7QScreen
jellyfinmediaplayer:_ZN14KonvergoWindow15reloadWebClientEv
jellyfinmediaplayer:_ZN14KonvergoWindow15updateDebugInfoEv
jellyfinmediaplayer:_ZN14KonvergoWindow16debugInfoChangedEv
jellyfinmediaplayer:_ZN14KonvergoWindow16loadGeometryRectEv
jellyfinmediaplayer:_ZN14KonvergoWindow16staticMetaObjectE
jellyfinmediaplayer:_ZN14KonvergoWindow17debugLayerChangedEv
jellyfinmediaplayer:_ZN14KonvergoWindow17enableVideoWindowEv
jellyfinmediaplayer:_ZN14KonvergoWindow17findCurrentScreenEv
jellyfinmediaplayer:_ZN14KonvergoWindow17updateWindowStateEb
jellyfinmediaplayer:_ZN14KonvergoWindow18fullScreenSwitchedEv
jellyfinmediaplayer:_ZN14KonvergoWindow18updateForcedScreenEv
jellyfinmediaplayer:_ZN14KonvergoWindow19onVisibilityChangedEN7QWindow10VisibilityE
jellyfinmediaplayer:_ZN14KonvergoWindow19playerWindowVisibleEb
jellyfinmediaplayer:_ZN14KonvergoWindow19updateCurrentScreenEv
jellyfinmediaplayer:_ZN14KonvergoWindow21webDesktopModeChangedEv
jellyfinmediaplayer:_ZN14KonvergoWindow23enableVideoWindowSignalEv
jellyfinmediaplayer:_ZN14KonvergoWindow25updateMainSectionSettingsERK4QMapI7QString8QVariantE
jellyfinmediaplayer:_ZN14KonvergoWindow6webUrlEv
jellyfinmediaplayer:_ZN14KonvergoWindowC1EP7QWindow
jellyfinmediaplayer:_ZN14KonvergoWindowC2EP7QWindow
jellyfinmediaplayer:_ZN14KonvergoWindowD0Ev
jellyfinmediaplayer:_ZN14KonvergoWindowD1Ev
jellyfinmediaplayer:_ZN14KonvergoWindowD2Ev
jellyfinmediaplayer:_ZN14PlayerRenderer11qt_metacallEN11QMetaObject4CallEiPPv
jellyfinmediaplayer:_ZN14PlayerRenderer11qt_metacastEPKc
jellyfinmediaplayer:_ZN14PlayerRenderer16staticMetaObjectE
jellyfinmediaplayer:_ZN14PlayerRenderer21onVideoPlaybackActiveEb
jellyfinmediaplayer:_ZN14PlayerRenderer4initEv
jellyfinmediaplayer:_ZN14PlayerRenderer4swapEv
jellyfinmediaplayer:_ZN14PlayerRenderer6renderEv
jellyfinmediaplayer:_ZN14PlayerRenderer9on_updateEPv
jellyfinmediaplayer:_ZN14PlayerRendererC1EN3mpv2qt6HandleEP12QQuickWindow
jellyfinmediaplayer:_ZN14PlayerRendererC2EN3mpv2qt6HandleEP12QQuickWindow
jellyfinmediaplayer:_ZN14PlayerRendererD0Ev
jellyfinmediaplayer:_ZN14PlayerRendererD1Ev
jellyfinmediaplayer:_ZN14PlayerRendererD2Ev
jellyfinmediaplayer:_ZN14PowerComponent11qt_metacallEN11QMetaObject4CallEiPPv
jellyfinmediaplayer:_ZN14PowerComponent11qt_metacastEPKc
jellyfinmediaplayer:_ZN14PowerComponent16staticMetaObjectE
jellyfinmediaplayer:_ZN14PowerComponent18screenSaverEnabledEv
jellyfinmediaplayer:_ZN14PowerComponent19componentInitializeEv
jellyfinmediaplayer:_ZN14PowerComponent19screenSaverDisabledEv
jellyfinmediaplayer:_ZN14PowerComponent21setScreensaverEnabledEb
jellyfinmediaplayer:_ZN14PowerComponent23componentPostInitializeEv
jellyfinmediaplayer:_ZN14PowerComponent3GetEv
jellyfinmediaplayer:_ZN14PowerComponent8checkCapENS_17PowerCapabilitiesE
jellyfinmediaplayer:_ZN15LocalJsonClient11qt_metacallEN11QMetaObject4CallEiPPv
jellyfinmediaplayer:_ZN15LocalJsonClient11qt_metacastEPKc
jellyfinmediaplayer:_ZN15LocalJsonClient11sendMessageERK4QMapI7QString8QVariantE
jellyfinmediaplayer:_ZN15LocalJsonClient15connectToServerEv
jellyfinmediaplayer:_ZN15LocalJsonClient15messageReceivedERK4QMapI7QString8QVariantE
jellyfinmediaplayer:_ZN15LocalJsonClient16staticMetaObjectE
jellyfinmediaplayer:_ZN15LocalJsonClient9readyReadEv
jellyfinmediaplayer:_ZN15LocalJsonClientC1E7QStringP7QObject
jellyfinmediaplayer:_ZN15LocalJsonClientC2E7QStringP7QObject
jellyfinmediaplayer:_ZN15LocalJsonServer11qt_metacallEN11QMetaObject4CallEiPPv
jellyfinmediaplayer:_ZN15LocalJsonServer11qt_metacastEPKc
jellyfinmediaplayer:_ZN15LocalJsonServer11sendMessageERK4QMapI7QString8QVariantEP12QLocalSocket
jellyfinmediaplayer:_ZN15LocalJsonServer14readFromSocketEP12QLocalSocket
jellyfinmediaplayer:_ZN15LocalJsonServer15clientConnectedEP12QLocalSocket
jellyfinmediaplayer:_ZN15LocalJsonServer15clientReadyReadEv
jellyfinmediaplayer:_ZN15LocalJsonServer15messageReceivedERK8QVariant
jellyfinmediaplayer:_ZN15LocalJsonServer16staticMetaObjectE
jellyfinmediaplayer:_ZN15LocalJsonServer21serverClientConnectedEv
jellyfinmediaplayer:_ZN15LocalJsonServer6listenEv
jellyfinmediaplayer:_ZN15LocalJsonServerC1ERK7QStringP7QObject
jellyfinmediaplayer:_ZN15LocalJsonServerC2ERK7QStringP7QObject
jellyfinmediaplayer:_ZN15PlayerComponent10clearQueueEv
jellyfinmediaplayer:_ZN15PlayerComponent10onMetaDataERK4QMapI7QString8QVariantE4QUrl
jellyfinmediaplayer:_ZN15PlayerComponent10queueMediaERK7QStringRK4QMapIS0_8QVariantES7_S2_S2_
jellyfinmediaplayer:_ZN15PlayerComponent11getDurationEv
jellyfinmediaplayer:_ZN15PlayerComponent11getPositionEv
jellyfinmediaplayer:_ZN15PlayerComponent11onMpvEventsEv
jellyfinmediaplayer:_ZN15PlayerComponent11qt_metacallEN11QMetaObject4CallEiPPv
jellyfinmediaplayer:_ZN15PlayerComponent11qt_metacastEPKc
jellyfinmediaplayer:_ZN15PlayerComponent11userCommandE7QString
jellyfinmediaplayer:_ZN15PlayerComponent12stateChangedENS_5StateES0_
jellyfinmediaplayer:_ZN15PlayerComponent12streamSwitchEv
jellyfinmediaplayer:_ZN15PlayerComponent13setAudioDelayEx
jellyfinmediaplayer:_ZN15PlayerComponent13windowVisibleEb
jellyfinmediaplayer:_ZN15PlayerComponent14handleMpvEventEP9mpv_event
jellyfinmediaplayer:_ZN15PlayerComponent14positionUpdateEy
jellyfinmediaplayer:_ZN15PlayerComponent14reselectStreamERK7QStringNS_9MediaTypeE
jellyfinmediaplayer:_ZN15PlayerComponent14setAudioDeviceERK7QString
jellyfinmediaplayer:_ZN15PlayerComponent14setAudioStreamERK7QString
jellyfinmediaplayer:_ZN15PlayerComponent14updateDurationEx
jellyfinmediaplayer:_ZN15PlayerComponent15getPlaybackInfoEv
jellyfinmediaplayer:_ZN15PlayerComponent15handleMpvEventsEv
jellyfinmediaplayer:_ZN15PlayerComponent15setPlaybackRateEi
jellyfinmediaplayer:_ZN15PlayerComponent16onRestoreDisplayEv
jellyfinmediaplayer:_ZN15PlayerComponent16setQtQuickWindowEP12QQuickWindow
jellyfinmediaplayer:_ZN15PlayerComponent16setSubtitleDelayEx
jellyfinmediaplayer:_ZN15PlayerComponent16setVideoOnlyModeEb
jellyfinmediaplayer:_ZN15PlayerComponent16staticMetaObjectE
jellyfinmediaplayer:_ZN15PlayerComponent17checkCodecSupportERK7QString
jellyfinmediaplayer:_ZN15PlayerComponent17findStreamsForURLERK7QString
jellyfinmediaplayer:_ZN15PlayerComponent17setSubtitleStreamERK7QString
jellyfinmediaplayer:_ZN15PlayerComponent17setVideoRectangleEiiii
jellyfinmediaplayer:_ZN15PlayerComponent17updateAudioDeviceEv
jellyfinmediaplayer:_ZN15PlayerComponent18getAudioDeviceListEv
jellyfinmediaplayer:_ZN15PlayerComponent18setPreferredCodecsERK5QListI11CodecDriverE
jellyfinmediaplayer:_ZN15PlayerComponent18startCodecsLoadingESt8functionIFvvEE
jellyfinmediaplayer:_ZN15PlayerComponent19componentInitializeEv
jellyfinmediaplayer:_ZN15PlayerComponent19onCodecsLoadingDoneEP13CodecsFetcher
jellyfinmediaplayer:_ZN15PlayerComponent19onRefreshRateChangeEv
jellyfinmediaplayer:_ZN15PlayerComponent19updatePlaybackStateEv
jellyfinmediaplayer:_ZN15PlayerComponent19updateVideoSettingsEv
jellyfinmediaplayer:_ZN15PlayerComponent19videoPlaybackActiveEb
jellyfinmediaplayer:_ZN15PlayerComponent21installedCodecDriversEv
jellyfinmediaplayer:_ZN15PlayerComponent21setAudioConfigurationEv
jellyfinmediaplayer:_ZN15PlayerComponent21updateAudioDeviceListEv
jellyfinmediaplayer:_ZN15PlayerComponent22initializeCodecSupportEv
jellyfinmediaplayer:_ZN15PlayerComponent22installedDecoderCodecsEv
jellyfinmediaplayer:_ZN15PlayerComponent22onVideoRecangleChangedEv
jellyfinmediaplayer:_ZN15PlayerComponent22switchDisplayFrameRateEv
jellyfinmediaplayer:_ZN15PlayerComponent22updateSubtitleSettingsEv
jellyfinmediaplayer:_ZN15PlayerComponent23checkCurrentAudioDeviceERK4QSetI7QStringES4_
jellyfinmediaplayer:_ZN15PlayerComponent23componentPostInitializeEv
jellyfinmediaplayer:_ZN15PlayerComponent25updateVideoAspectSettingsEv
jellyfinmediaplayer:_ZN15PlayerComponent4loadERK7QStringRK4QMapIS0_8QVariantES7_S2_S2_
jellyfinmediaplayer:_ZN15PlayerComponent4playEv
jellyfinmediaplayer:_ZN15PlayerComponent4stopEv
jellyfinmediaplayer:_ZN15PlayerComponent5errorERK7QString
jellyfinmediaplayer:_ZN15PlayerComponent5mutedEv
jellyfinmediaplayer:_ZN15PlayerComponent5pauseEv
jellyfinmediaplayer:_ZN15PlayerComponent6pausedEv
jellyfinmediaplayer:_ZN15PlayerComponent6seekToEx
jellyfinmediaplayer:_ZN15PlayerComponent6volumeEv
jellyfinmediaplayer:_ZN15PlayerComponent7playingEv
jellyfinmediaplayer:_ZN15PlayerComponent7stoppedEv
jellyfinmediaplayer:_ZN15PlayerComponent8canceledEv
jellyfinmediaplayer:_ZN15PlayerComponent8finishedEv
jellyfinmediaplayer:_ZN15PlayerComponent8setMutedEb
jellyfinmediaplayer:_ZN15PlayerComponent9bufferingEf
jellyfinmediaplayer:_ZN15PlayerComponent9setVolumeEi
jellyfinmediaplayer:_ZN15PlayerComponent9setWindowEP12QQuickWindow
jellyfinmediaplayer:_ZN15PlayerComponentC1EP7QObject
jellyfinmediaplayer:_ZN15PlayerComponentC2EP7QObject
jellyfinmediaplayer:_ZN15PlayerComponentD0Ev
jellyfinmediaplayer:_ZN15PlayerComponentD1Ev
jellyfinmediaplayer:_ZN15PlayerComponentD2Ev
jellyfinmediaplayer:_ZN15PlayerQuickItem11qt_metacallEN11QMetaObject4CallEiPPv
jellyfinmediaplayer:_ZN15PlayerQuickItem11qt_metacastEPKc
jellyfinmediaplayer:_ZN15PlayerQuickItem12onFatalErrorE7QString
jellyfinmediaplayer:_ZN15PlayerQuickItem12onInvalidateEv
jellyfinmediaplayer:_ZN15PlayerQuickItem13onSynchronizeEv
jellyfinmediaplayer:_ZN15PlayerQuickItem15onWindowChangedEP12QQuickWindow
jellyfinmediaplayer:_ZN15PlayerQuickItem16staticMetaObjectE
jellyfinmediaplayer:_ZN15PlayerQuickItem18onHandleFatalErrorE7QString
jellyfinmediaplayer:_ZN15PlayerQuickItem7initMpvEP15PlayerComponent
jellyfinmediaplayer:_ZN15PlayerQuickItemC1EP10QQuickItem
jellyfinmediaplayer:_ZN15PlayerQuickItemC2EP10QQuickItem
jellyfinmediaplayer:_ZN15PlayerQuickItemD0Ev
jellyfinmediaplayer:_ZN15PlayerQuickItemD1Ev
jellyfinmediaplayer:_ZN15PlayerQuickItemD2Ev
jellyfinmediaplayer:_ZN15SettingsSection10resetValueERK7QString
jellyfinmediaplayer:_ZN15SettingsSection11qt_metacallEN11QMetaObject4CallEiPPv
jellyfinmediaplayer:_ZN15SettingsSection11qt_metacastEPKc
jellyfinmediaplayer:_ZN15SettingsSection11resetValuesEv
jellyfinmediaplayer:_ZN15SettingsSection12defaultValueERK7QString
jellyfinmediaplayer:_ZN15SettingsSection13valuesUpdatedERK4QMapI7QString8QVariantE
jellyfinmediaplayer:_ZN15SettingsSection14possibleValuesERK7QString
jellyfinmediaplayer:_ZN15SettingsSection15registerSettingEP13SettingsValue
jellyfinmediaplayer:_ZN15SettingsSection16staticMetaObjectE
jellyfinmediaplayer:_ZN15SettingsSection18resetValueNoNotifyERK7QStringR4QMapIS0_8QVariantE
jellyfinmediaplayer:_ZN15SettingsSection20updatePossibleValuesERK7QStringRK5QListI8QVariantE
jellyfinmediaplayer:_ZN15SettingsSection5valueERK7QString
jellyfinmediaplayer:_ZN15SettingsSection8setValueERK7QStringRK8QVariant
jellyfinmediaplayer:_ZN15SettingsSection9setValuesERK8QVariant
jellyfinmediaplayer:_ZN15SettingsSectionC1ERK7QStringhiP7QObject
jellyfinmediaplayer:_ZN15SettingsSectionC2ERK7QStringhiP7QObject
jellyfinmediaplayer:_ZN15SystemComponent11hostMessageERK7QString
jellyfinmediaplayer:_ZN15SystemComponent11qt_metacallEN11QMetaObject4CallEiPPv
jellyfinmediaplayer:_ZN15SystemComponent11qt_metacastEPKc
jellyfinmediaplayer:_ZN15SystemComponent12getUserAgentEv
jellyfinmediaplayer:_ZN15SystemComponent12scaleChangedEd
jellyfinmediaplayer:_ZN15SystemComponent13runUserScriptE7QString
jellyfinmediaplayer:_ZN15SystemComponent15checkForUpdatesEv
jellyfinmediaplayer:_ZN15SystemComponent15openExternalUrlERK7QString
jellyfinmediaplayer:_ZN15SystemComponent15settingsMessageERK7QStringS2_
jellyfinmediaplayer:_ZN15SystemComponent15userInfoChangedEv
jellyfinmediaplayer:_ZN15SystemComponent16debugInformationEv
jellyfinmediaplayer:_ZN15SystemComponent16staticMetaObjectE
jellyfinmediaplayer:_ZN15SystemComponent17updateInfoEmittedE7QString
jellyfinmediaplayer:_ZN15SystemComponent17updateInfoHandlerEP13QNetworkReply
jellyfinmediaplayer:_ZN15SystemComponent19capabilitiesChangedERK7QString
jellyfinmediaplayer:_ZN15SystemComponent19componentInitializeEv
jellyfinmediaplayer:_ZN15SystemComponent19setCursorVisibilityEb
jellyfinmediaplayer:_ZN15SystemComponent20getNativeShellScriptEv
jellyfinmediaplayer:_ZN15SystemComponent21getCapabilitiesStringEv
jellyfinmediaplayer:_ZN15SystemComponent23componentPostInitializeEv
jellyfinmediaplayer:_ZN15SystemComponent4exitEv
jellyfinmediaplayer:_ZN15SystemComponent4infoE7QString
jellyfinmediaplayer:_ZN15SystemComponent5helloERK7QString
jellyfinmediaplayer:_ZN15SystemComponent7restartEv
jellyfinmediaplayer:_ZN15SystemComponent8crashAppEv
jellyfinmediaplayer:_ZN15SystemComponentC1EP7QObject
jellyfinmediaplayer:_ZN15SystemComponentC2EP7QObject
jellyfinmediaplayer:_ZN16ComponentManager10initializeEv
jellyfinmediaplayer:_ZN16ComponentManager11qt_metacallEN11QMetaObject4CallEiPPv
jellyfinmediaplayer:_ZN16ComponentManager11qt_metacastEPKc
jellyfinmediaplayer:_ZN16ComponentManager13setWebChannelEP11QWebChannel
jellyfinmediaplayer:_ZN16ComponentManager16staticMetaObjectE
jellyfinmediaplayer:_ZN16ComponentManager17registerComponentEP13ComponentBase
jellyfinmediaplayer:_ZN16ComponentManagerC1Ev
jellyfinmediaplayer:_ZN16ComponentManagerC2Ev
jellyfinmediaplayer:_ZN16DisplayComponent10modePrettyEii
jellyfinmediaplayer:_ZN16DisplayComponent11displayNameEi
jellyfinmediaplayer:_ZN16DisplayComponent11qt_metacallEN11QMetaObject4CallEiPPv
jellyfinmediaplayer:_ZN16DisplayComponent11qt_metacastEPKc
jellyfinmediaplayer:_ZN16DisplayComponent13monitorChangeEv
jellyfinmediaplayer:_ZN16DisplayComponent13switchCommandE7QString
jellyfinmediaplayer:_ZN16DisplayComponent16debugInformationEv
jellyfinmediaplayer:_ZN16DisplayComponent16staticMetaObjectE
jellyfinmediaplayer:_ZN16DisplayComponent18currentRefreshRateEv
jellyfinmediaplayer:_ZN16DisplayComponent18refreshRateChangedEv
jellyfinmediaplayer:_ZN16DisplayComponent19componentInitializeEv
jellyfinmediaplayer:_ZN16DisplayComponent21getApplicationDisplayEb
jellyfinmediaplayer:_ZN16DisplayComponent21switchToBestVideoModeEf
jellyfinmediaplayer:_ZN16DisplayComponent23componentPostInitializeEv
jellyfinmediaplayer:_ZN16DisplayComponent24initializeDisplayManagerEv
jellyfinmediaplayer:_ZN16DisplayComponent24restorePreviousVideoModeEv
jellyfinmediaplayer:_ZN16DisplayComponent28switchToBestOverallVideoModeEi
jellyfinmediaplayer:_ZN16DisplayComponentC1EP7QObject
jellyfinmediaplayer:_ZN16DisplayComponentC2EP7QObject
jellyfinmediaplayer:_ZN16DisplayComponentD0Ev
jellyfinmediaplayer:_ZN16DisplayComponentD1Ev
jellyfinmediaplayer:_ZN16DisplayComponentD2Ev
jellyfinmediaplayer:_ZN16TaskbarComponent11qt_metacallEN11QMetaObject4CallEiPPv
jellyfinmediaplayer:_ZN16TaskbarComponent11qt_metacastEPKc
jellyfinmediaplayer:_ZN16TaskbarComponent16staticMetaObjectE
jellyfinmediaplayer:_ZN16TaskbarComponent3GetEv
jellyfinmediaplayer:_ZN16TaskbarComponent9setWindowEP12QQuickWindow
jellyfinmediaplayer:_ZN17SettingsComponent11groupUpdateERK7QStringRK8QVariant
jellyfinmediaplayer:_ZN17SettingsComponent11qt_metacallEN11QMetaObject4CallEiPPv
jellyfinmediaplayer:_ZN17SettingsComponent11qt_metacastEPKc
jellyfinmediaplayer:_ZN17SettingsComponent11removeValueERK7QString
jellyfinmediaplayer:_ZN17SettingsComponent11saveSectionEP15SettingsSection
jellyfinmediaplayer:_ZN17SettingsComponent11saveStorageEv
jellyfinmediaplayer:_ZN17SettingsComponent12parseSectionERK11QJsonObject
jellyfinmediaplayer:_ZN17SettingsComponent12saveSettingsEv
jellyfinmediaplayer:_ZN17SettingsComponent12setupVersionEv
jellyfinmediaplayer:_ZN17SettingsComponent13getClientNameEv
jellyfinmediaplayer:_ZN17SettingsComponent14resetToDefaultERK7QString
jellyfinmediaplayer:_ZN17SettingsComponent15getWebClientUrlEb
jellyfinmediaplayer:_ZN17SettingsComponent15ignoreSSLErrorsEv
jellyfinmediaplayer:_ZN17SettingsComponent15loadDescriptionEv
jellyfinmediaplayer:_ZN17SettingsComponent16getExtensionPathEv
jellyfinmediaplayer:_ZN17SettingsComponent16readPreinitValueERK7QStringS2_
jellyfinmediaplayer:_ZN17SettingsComponent16staticMetaObjectE
jellyfinmediaplayer:_ZN17SettingsComponent17resetToDefaultAllEv
jellyfinmediaplayer:_ZN17SettingsComponent17setSettingCommandERK7QString
jellyfinmediaplayer:_ZN17SettingsComponent18platformFromStringERK7QString
jellyfinmediaplayer:_ZN17SettingsComponent18sectionValueUpdateERK7QStringRK4QMapIS0_8QVariantE
jellyfinmediaplayer:_ZN17SettingsComponent19componentInitializeEv
jellyfinmediaplayer:_ZN17SettingsComponent19cycleSettingCommandERK7QString
jellyfinmediaplayer:_ZN17SettingsComponent19settingDescriptionsEv
jellyfinmediaplayer:_ZN17SettingsComponent20setCommandLineValuesERK11QStringList
jellyfinmediaplayer:_ZN17SettingsComponent20updatePossibleValuesERK7QStringS2_RK5QListI8QVariantE
jellyfinmediaplayer:_ZN17SettingsComponent22platformMaskFromObjectERK11QJsonObject
jellyfinmediaplayer:_ZN17SettingsComponent23componentPostInitializeEv
jellyfinmediaplayer:_ZN17SettingsComponent28resetAndSaveOldConfigurationEv
jellyfinmediaplayer:_ZN17SettingsComponent4loadEv
jellyfinmediaplayer:_ZN17SettingsComponent5valueERK7QStringS2_
jellyfinmediaplayer:_ZN17SettingsComponent8loadConfERK7QStringb
jellyfinmediaplayer:_ZN17SettingsComponent8setValueERK7QStringS2_RK8QVariant
jellyfinmediaplayer:_ZN17SettingsComponent9allValuesERK7QString
jellyfinmediaplayer:_ZN17SettingsComponent9setValuesERK4QMapI7QString8QVariantE
jellyfinmediaplayer:_ZN17SettingsComponentC1EP7QObject
jellyfinmediaplayer:_ZN17SettingsComponentC2EP7QObject
jellyfinmediaplayer:_ZN17UniqueApplication11qt_metacallEN11QMetaObject4CallEiPPv
jellyfinmediaplayer:_ZN17UniqueApplication11qt_metacastEPKc
jellyfinmediaplayer:_ZN17UniqueApplication16staticMetaObjectE
jellyfinmediaplayer:_ZN17UniqueApplication23otherApplicationStartedEv
jellyfinmediaplayer:_ZN18CachedRegexMatcher10addMatcherERK7QStringRK8QVariant
jellyfinmediaplayer:_ZN18CachedRegexMatcher5clearEv
jellyfinmediaplayer:_ZN18CachedRegexMatcher5matchERK7QString
jellyfinmediaplayer:_ZN18PowerComponentDBus15callPowerMethodE7QString
jellyfinmediaplayer:_ZN18PowerComponentDBus19doEnableScreensaverEv
jellyfinmediaplayer:_ZN18PowerComponentDBus20doDisableScreensaverEv
jellyfinmediaplayer:_ZN18PowerComponentDBus22isPowerMethodAvailableE7QString
jellyfinmediaplayer:_ZN18PowerComponentDBus6RebootEv
jellyfinmediaplayer:_ZN18PowerComponentDBus8PowerOffEv
jellyfinmediaplayer:_ZN19DisplayManagerDummy10initializeEv
jellyfinmediaplayer:_ZN19DisplayManagerDummy11qt_metacallEN11QMetaObject4CallEiPPv
jellyfinmediaplayer:_ZN19DisplayManagerDummy11qt_metacastEPKc
jellyfinmediaplayer:_ZN19DisplayManagerDummy14getMainDisplayEv
jellyfinmediaplayer:_ZN19DisplayManagerDummy14setDisplayModeEii
jellyfinmediaplayer:_ZN19DisplayManagerDummy16staticMetaObjectE
jellyfinmediaplayer:_ZN19DisplayManagerDummy19getDisplayFromPointEii
jellyfinmediaplayer:_ZN19DisplayManagerDummy21getCurrentDisplayModeEi
jellyfinmediaplayer:_ZN19DisplayManagerDummy7addModeEf
jellyfinmediaplayer:_ZN23AudioSettingsController11qt_metacallEN11QMetaObject4CallEiPPv
jellyfinmediaplayer:_ZN23AudioSettingsController11qt_metacastEPKc
jellyfinmediaplayer:_ZN23AudioSettingsController13valuesUpdatedERK4QMapI7QString8QVariantE
jellyfinmediaplayer:_ZN23AudioSettingsController15settingsUpdatedERK7QStringRK8QVariant
jellyfinmediaplayer:_ZN23AudioSettingsController16staticMetaObjectE
jellyfinmediaplayer:_ZN23AudioSettingsController20setHiddenPassthroughERK11QStringListb
jellyfinmediaplayer:_ZN23AudioSettingsControllerC1EP7QObject
jellyfinmediaplayer:_ZN23AudioSettingsControllerC2EP7QObject
jellyfinmediaplayer:_ZN3Log14UpdateLogLevelEv
jellyfinmediaplayer:_ZN3Log16CensorAuthTokensER7QString
jellyfinmediaplayer:_ZN3Log20EnableTerminalOutputEv
jellyfinmediaplayer:_ZN3Log4InitEv
jellyfinmediaplayer:_ZN3Log6UninitEv
jellyfinmediaplayer:_ZN5Names10HelperNameEv
jellyfinmediaplayer:_ZN5Names8MainNameEv
jellyfinmediaplayer:_ZN5Paths10socketNameERK7QString
jellyfinmediaplayer:_ZN5Paths10soundsPathERK7QString
jellyfinmediaplayer:_ZN5Paths11resourceDirERK7QString
jellyfinmediaplayer:_ZN5Paths13webClientPathERK7QString
jellyfinmediaplayer:_ZN5Paths16webExtensionPathERK7QString
jellyfinmediaplayer:_ZN5Paths6logDirERK7QString
jellyfinmediaplayer:_ZN5Paths7dataDirERK7QString
jellyfinmediaplayer:_ZN5Paths8cacheDirERK7QString
jellyfinmediaplayer:_ZN5Utils12ComputerNameEv
jellyfinmediaplayer:_ZN5Utils13CurrentUserIdEv
jellyfinmediaplayer:_ZN5Utils15CurrentPlatformEv
jellyfinmediaplayer:_ZN5Utils15safelyWriteFileERK7QStringRK10QByteArray
jellyfinmediaplayer:_ZN5Utils16OpenJsonDocumentERK7QStringP15QJsonParseError
jellyfinmediaplayer:_ZN5Utils18PrimaryIPv4AddressEv
jellyfinmediaplayer:_ZN5Utils25sanitizeForHttpSeparatorsERK7QString
jellyfinmediaplayer:_ZN5qhttp18QHttpAbstractInput11qt_metacallEN11QMetaObject4CallEiPPv
jellyfinmediaplayer:_ZN5qhttp18QHttpAbstractInput11qt_metacastEPKc
jellyfinmediaplayer:_ZN5qhttp18QHttpAbstractInput16staticMetaObjectE
jellyfinmediaplayer:_ZN5qhttp18QHttpAbstractInput3endEv
jellyfinmediaplayer:_ZN5qhttp18QHttpAbstractInput4dataE10QByteArray
jellyfinmediaplayer:_ZN5qhttp18QHttpAbstractInputC1EP7QObject
jellyfinmediaplayer:_ZN5qhttp18QHttpAbstractInputC2EP7QObject
jellyfinmediaplayer:_ZN5qhttp19QHttpAbstractOutput11qt_metacallEN11QMetaObject4CallEiPPv
jellyfinmediaplayer:_ZN5qhttp19QHttpAbstractOutput11qt_metacastEPKc
jellyfinmediaplayer:_ZN5qhttp19QHttpAbstractOutput15allBytesWrittenEv
jellyfinmediaplayer:_ZN5qhttp19QHttpAbstractOutput16staticMetaObjectE
jellyfinmediaplayer:_ZN5qhttp19QHttpAbstractOutput4doneEb
jellyfinmediaplayer:_ZN5qhttp19QHttpAbstractOutputC1EP7QObject
jellyfinmediaplayer:_ZN5qhttp19QHttpAbstractOutputC2EP7QObject
jellyfinmediaplayer:_ZN5qhttp6client11QHttpClient10setTimeOutEj
jellyfinmediaplayer:_ZN5qhttp6client11QHttpClient10timerEventEP11QTimerEvent
jellyfinmediaplayer:_ZN5qhttp6client11QHttpClient11newResponseEPNS0_13QHttpResponseE
jellyfinmediaplayer:_ZN5qhttp6client11QHttpClient11qt_metacallEN11QMetaObject4CallEiPPv
jellyfinmediaplayer:_ZN5qhttp6client11QHttpClient11qt_metacastEPKc
jellyfinmediaplayer:_ZN5qhttp6client11QHttpClient12disconnectedEv
jellyfinmediaplayer:_ZN5qhttp6client11QHttpClient13httpConnectedEPNS0_12QHttpRequestE
jellyfinmediaplayer:_ZN5qhttp6client11QHttpClient14killConnectionEv
jellyfinmediaplayer:_ZN5qhttp6client11QHttpClient14onRequestReadyEPNS0_12QHttpRequestE
jellyfinmediaplayer:_ZN5qhttp6client11QHttpClient15onResponseReadyEPNS0_13QHttpResponseE
jellyfinmediaplayer:_ZN5qhttp6client11QHttpClient16staticMetaObjectE
jellyfinmediaplayer:_ZN5qhttp6client11QHttpClient17connectingTimeOutEv
jellyfinmediaplayer:_ZN5qhttp6client11QHttpClient20setConnectingTimeOutEj
jellyfinmediaplayer:_ZN5qhttp6client11QHttpClient7requestENS_11THttpMethodE4QUrlRKSt8functionIFvPNS0_12QHttpRequestEEERKS4_IFvPNS0_13QHttpResponseEEE
jellyfinmediaplayer:_ZN5qhttp6client11QHttpClientC1EP7QObject
jellyfinmediaplayer:_ZN5qhttp6client11QHttpClientC1ERNS0_18QHttpClientPrivateEP7QObject
jellyfinmediaplayer:_ZN5qhttp6client11QHttpClientC2EP7QObject
jellyfinmediaplayer:_ZN5qhttp6client11QHttpClientC2ERNS0_18QHttpClientPrivateEP7QObject
jellyfinmediaplayer:_ZN5qhttp6client11QHttpClientD0Ev
jellyfinmediaplayer:_ZN5qhttp6client11QHttpClientD1Ev
jellyfinmediaplayer:_ZN5qhttp6client11QHttpClientD2Ev
jellyfinmediaplayer:_ZN5qhttp6client12QHttpRequest10setVersionERK7QString
jellyfinmediaplayer:_ZN5qhttp6client12QHttpRequest11qt_metacallEN11QMetaObject4CallEiPPv
jellyfinmediaplayer:_ZN5qhttp6client12QHttpRequest11qt_metacastEPKc
jellyfinmediaplayer:_ZN5qhttp6client12QHttpRequest16staticMetaObjectE
jellyfinmediaplayer:_ZN5qhttp6client12QHttpRequest3endERK10QByteArray
jellyfinmediaplayer:_ZN5qhttp6client12QHttpRequest5writeERK10QByteArray
jellyfinmediaplayer:_ZN5qhttp6client12QHttpRequest7headersEv
jellyfinmediaplayer:_ZN5qhttp6client12QHttpRequest9addHeaderERK10QByteArrayS4_
jellyfinmediaplayer:_ZN5qhttp6client12QHttpRequestC1EPNS0_11QHttpClientE
jellyfinmediaplayer:_ZN5qhttp6client12QHttpRequestC1ERNS0_19QHttpRequestPrivateEPNS0_11QHttpClientE
jellyfinmediaplayer:_ZN5qhttp6client12QHttpRequestC2EPNS0_11QHttpClientE
jellyfinmediaplayer:_ZN5qhttp6client12QHttpRequestC2ERNS0_19QHttpRequestPrivateEPNS0_11QHttpClientE
jellyfinmediaplayer:_ZN5qhttp6client12QHttpRequestD0Ev
jellyfinmediaplayer:_ZN5qhttp6client12QHttpRequestD1Ev
jellyfinmediaplayer:_ZN5qhttp6client12QHttpRequestD2Ev
jellyfinmediaplayer:_ZN5qhttp6client13QHttpResponse11collectDataEi
jellyfinmediaplayer:_ZN5qhttp6client13QHttpResponse11qt_metacallEN11QMetaObject4CallEiPPv
jellyfinmediaplayer:_ZN5qhttp6client13QHttpResponse11qt_metacastEPKc
jellyfinmediaplayer:_ZN5qhttp6client13QHttpResponse16staticMetaObjectE
jellyfinmediaplayer:_ZN5qhttp6client13QHttpResponseC1EPNS0_11QHttpClientE
jellyfinmediaplayer:_ZN5qhttp6client13QHttpResponseC1ERNS0_20QHttpResponsePrivateEPNS0_11QHttpClientE
jellyfinmediaplayer:_ZN5qhttp6client13QHttpResponseC2EPNS0_11QHttpClientE
jellyfinmediaplayer:_ZN5qhttp6client13QHttpResponseC2ERNS0_20QHttpResponsePrivateEPNS0_11QHttpClientE
jellyfinmediaplayer:_ZN5qhttp6client13QHttpResponseD0Ev
jellyfinmediaplayer:_ZN5qhttp6client13QHttpResponseD1Ev
jellyfinmediaplayer:_ZN5qhttp6client13QHttpResponseD2Ev
jellyfinmediaplayer:_ZN5qhttp6client18QHttpClientPrivate11headerFieldEP11http_parserPKcm
jellyfinmediaplayer:_ZN5qhttp6client18QHttpClientPrivate11headerValueEP11http_parserPKcm
jellyfinmediaplayer:_ZN5qhttp6client18QHttpClientPrivate12messageBeginEP11http_parser
jellyfinmediaplayer:_ZN5qhttp6client18QHttpClientPrivate15headersCompleteEP11http_parser
jellyfinmediaplayer:_ZN5qhttp6client18QHttpClientPrivate15messageCompleteEP11http_parser
jellyfinmediaplayer:_ZN5qhttp6client18QHttpClientPrivate4bodyEP11http_parserPKcm
jellyfinmediaplayer:_ZN5qhttp6client18QHttpClientPrivate6statusEP11http_parserPKcm
jellyfinmediaplayer:_ZN5qhttp6client19QHttpRequestPrivate21prepareHeadersToWriteEv
jellyfinmediaplayer:_ZN5qhttp6client19QHttpRequestPrivate9makeTitleEv
jellyfinmediaplayer:_ZN5qhttp6server11QHttpServer10newRequestEPNS0_12QHttpRequestEPNS0_13QHttpResponseE
jellyfinmediaplayer:_ZN5qhttp6server11QHttpServer10setTimeOutEj
jellyfinmediaplayer:_ZN5qhttp6server11QHttpServer11qt_metacallEN11QMetaObject4CallEiPPv
jellyfinmediaplayer:_ZN5qhttp6server11QHttpServer11qt_metacastEPKc
jellyfinmediaplayer:_ZN5qhttp6server11QHttpServer13newConnectionEPNS0_15QHttpConnectionE
jellyfinmediaplayer:_ZN5qhttp6server11QHttpServer13stopListeningEv
jellyfinmediaplayer:_ZN5qhttp6server11QHttpServer16staticMetaObjectE
jellyfinmediaplayer:_ZN5qhttp6server11QHttpServer18incomingConnectionEPNS0_15QHttpConnectionE
jellyfinmediaplayer:_ZN5qhttp6server11QHttpServer18incomingConnectionEx
jellyfinmediaplayer:_ZN5qhttp6server11QHttpServer6listenERK12QHostAddresstRKSt8functionIFvPNS0_12QHttpRequestEPNS0_13QHttpResponseEEE
jellyfinmediaplayer:_ZN5qhttp6server11QHttpServer6listenERK7QStringRKSt8functionIFvPNS0_12QHttpRequestEPNS0_13QHttpResponseEEE
jellyfinmediaplayer:_ZN5qhttp6server11QHttpServerC1EP7QObject
jellyfinmediaplayer:_ZN5qhttp6server11QHttpServerC1ERNS0_18QHttpServerPrivateEP7QObject
jellyfinmediaplayer:_ZN5qhttp6server11QHttpServerC2EP7QObject
jellyfinmediaplayer:_ZN5qhttp6server11QHttpServerC2ERNS0_18QHttpServerPrivateEP7QObject
jellyfinmediaplayer:_ZN5qhttp6server11QHttpServerD0Ev
jellyfinmediaplayer:_ZN5qhttp6server11QHttpServerD1Ev
jellyfinmediaplayer:_ZN5qhttp6server11QHttpServerD2Ev
jellyfinmediaplayer:_ZN5qhttp6server12QHttpRequest11collectDataEi
jellyfinmediaplayer:_ZN5qhttp6server12QHttpRequest11qt_metacallEN11QMetaObject4CallEiPPv
jellyfinmediaplayer:_ZN5qhttp6server12QHttpRequest11qt_metacastEPKc
jellyfinmediaplayer:_ZN5qhttp6server12QHttpRequest16staticMetaObjectE
jellyfinmediaplayer:_ZN5qhttp6server12QHttpRequestC1EPNS0_15QHttpConnectionE
jellyfinmediaplayer:_ZN5qhttp6server12QHttpRequestC1ERNS0_19QHttpRequestPrivateEPNS0_15QHttpConnectionE
jellyfinmediaplayer:_ZN5qhttp6server12QHttpRequestC2EPNS0_15QHttpConnectionE
jellyfinmediaplayer:_ZN5qhttp6server12QHttpRequestC2ERNS0_19QHttpRequestPrivateEPNS0_15QHttpConnectionE
jellyfinmediaplayer:_ZN5qhttp6server12QHttpRequestD0Ev
jellyfinmediaplayer:_ZN5qhttp6server12QHttpRequestD1Ev
jellyfinmediaplayer:_ZN5qhttp6server12QHttpRequestD2Ev
jellyfinmediaplayer:_ZN5qhttp6server13QHttpResponse10setVersionERK7QString
jellyfinmediaplayer:_ZN5qhttp6server13QHttpResponse11qt_metacallEN11QMetaObject4CallEiPPv
jellyfinmediaplayer:_ZN5qhttp6server13QHttpResponse11qt_metacastEPKc
jellyfinmediaplayer:_ZN5qhttp6server13QHttpResponse13setStatusCodeENS_11TStatusCodeE
jellyfinmediaplayer:_ZN5qhttp6server13QHttpResponse16staticMetaObjectE
jellyfinmediaplayer:_ZN5qhttp6server13QHttpResponse3endERK10QByteArray
jellyfinmediaplayer:_ZN5qhttp6server13QHttpResponse5writeERK10QByteArray
jellyfinmediaplayer:_ZN5qhttp6server13QHttpResponse7headersEv
jellyfinmediaplayer:_ZN5qhttp6server13QHttpResponse9addHeaderERK10QByteArrayS4_
jellyfinmediaplayer:_ZN5qhttp6server13QHttpResponseC1EPNS0_15QHttpConnectionE
jellyfinmediaplayer:_ZN5qhttp6server13QHttpResponseC1ERNS0_20QHttpResponsePrivateEPNS0_15QHttpConnectionE
jellyfinmediaplayer:_ZN5qhttp6server13QHttpResponseC2EPNS0_15QHttpConnectionE
jellyfinmediaplayer:_ZN5qhttp6server13QHttpResponseC2ERNS0_20QHttpResponsePrivateEPNS0_15QHttpConnectionE
jellyfinmediaplayer:_ZN5qhttp6server13QHttpResponseD0Ev
jellyfinmediaplayer:_ZN5qhttp6server13QHttpResponseD1Ev
jellyfinmediaplayer:_ZN5qhttp6server13QHttpResponseD2Ev
jellyfinmediaplayer:_ZN5qhttp6server15QHttpConnection10newRequestEPNS0_12QHttpRequestEPNS0_13QHttpResponseE
jellyfinmediaplayer:_ZN5qhttp6server15QHttpConnection10setTimeOutEj
jellyfinmediaplayer:_ZN5qhttp6server15QHttpConnection10timerEventEP11QTimerEvent
jellyfinmediaplayer:_ZN5qhttp6server15QHttpConnection11qt_metacallEN11QMetaObject4CallEiPPv
jellyfinmediaplayer:_ZN5qhttp6server15QHttpConnection11qt_metacastEPKc
jellyfinmediaplayer:_ZN5qhttp6server15QHttpConnection12disconnectedEv
jellyfinmediaplayer:_ZN5qhttp6server15QHttpConnection14killConnectionEv
jellyfinmediaplayer:_ZN5qhttp6server15QHttpConnection16staticMetaObjectE
jellyfinmediaplayer:_ZN5qhttp6server15QHttpConnection19setSocketDescriptorExNS_8TBackendE
jellyfinmediaplayer:_ZN5qhttp6server15QHttpConnection9onHandlerERKSt8functionIFvPNS0_12QHttpRequestEPNS0_13QHttpResponseEEE
jellyfinmediaplayer:_ZN5qhttp6server15QHttpConnectionC1EP7QObject
jellyfinmediaplayer:_ZN5qhttp6server15QHttpConnectionC1ERNS0_22QHttpConnectionPrivateEP7QObject
jellyfinmediaplayer:_ZN5qhttp6server15QHttpConnectionC2EP7QObject
jellyfinmediaplayer:_ZN5qhttp6server15QHttpConnectionC2ERNS0_22QHttpConnectionPrivateEP7QObject
jellyfinmediaplayer:_ZN5qhttp6server15QHttpConnectionD0Ev
jellyfinmediaplayer:_ZN5qhttp6server15QHttpConnectionD1Ev
jellyfinmediaplayer:_ZN5qhttp6server15QHttpConnectionD2Ev
jellyfinmediaplayer:_ZN5qhttp6server20QHttpResponsePrivate21prepareHeadersToWriteEv
jellyfinmediaplayer:_ZN5qhttp6server20QHttpResponsePrivate9makeTitleEv
jellyfinmediaplayer:_ZN5qhttp6server22QHttpConnectionPrivate11headerFieldEP11http_parserPKcm
jellyfinmediaplayer:_ZN5qhttp6server22QHttpConnectionPrivate11headerValueEP11http_parserPKcm
jellyfinmediaplayer:_ZN5qhttp6server22QHttpConnectionPrivate12messageBeginEP11http_parser
jellyfinmediaplayer:_ZN5qhttp6server22QHttpConnectionPrivate15headersCompleteEP11http_parser
jellyfinmediaplayer:_ZN5qhttp6server22QHttpConnectionPrivate15messageCompleteEP11http_parser
jellyfinmediaplayer:_ZN5qhttp6server22QHttpConnectionPrivate3urlEP11http_parserPKcm
jellyfinmediaplayer:_ZN5qhttp6server22QHttpConnectionPrivate4bodyEP11http_parserPKcm
jellyfinmediaplayer:_ZN5qhttp9Stringify8toStringENS_11THttpMethodE
jellyfinmediaplayer:_ZN5qhttp9Stringify8toStringENS_11TStatusCodeE
jellyfinmediaplayer:_ZN6Codecs10initCodecsEv
jellyfinmediaplayer:_ZN6Codecs12plexNameToFFE7QString
jellyfinmediaplayer:_ZN6Codecs13preinitCodecsEv
jellyfinmediaplayer:_ZN6Codecs14plexNameFromFFE7QString
jellyfinmediaplayer:_ZN6Codecs18findCodecsByFormatERK5QListI11CodecDriverE9CodecTypeRK7QString
jellyfinmediaplayer:_ZN6Codecs18getCachedCodecListEv
jellyfinmediaplayer:_ZN6Codecs21updateCachedCodecListEv
jellyfinmediaplayer:_ZN6Codecs23determineRequiredCodecsERK12PlaybackInfo
jellyfinmediaplayer:_ZN6Codecs6UninitEv
jellyfinmediaplayer:_ZN7Globals10MainWindowEv
jellyfinmediaplayer:_ZN7Globals13EngineDestroyEv
jellyfinmediaplayer:_ZN7Globals15ContextPropertyERK7QString
jellyfinmediaplayer:_ZN7Globals18SetContextPropertyERK7QStringP7QObject
jellyfinmediaplayer:_ZN7Globals18SetContextPropertyERK7QStringRK8QVariant
jellyfinmediaplayer:_ZN7Globals6EngineEv
jellyfinmediaplayer:_ZN7Version12GetBuildDateEv
jellyfinmediaplayer:_ZN7Version13GetWebVersionEv
jellyfinmediaplayer:_ZN7Version16GetQtDepsVersionEv
jellyfinmediaplayer:_ZN7Version16GetVersionStringEv
jellyfinmediaplayer:_ZN7Version22GetDependenciesVersionEv
jellyfinmediaplayer:_ZN7Version25GetCanonicalVersionStringEv
jellyfinmediaplayer:_ZN8InputCEC9initInputEv
jellyfinmediaplayer:_ZN8InputCECC1EP7QObject
jellyfinmediaplayer:_ZN8InputCECC2EP7QObject
jellyfinmediaplayer:_ZN8InputCECD0Ev
jellyfinmediaplayer:_ZN8InputCECD1Ev
jellyfinmediaplayer:_ZN8InputCECD2Ev
jellyfinmediaplayer:_ZN8InputSDL11qt_metacallEN11QMetaObject4CallEiPPv
jellyfinmediaplayer:_ZN8InputSDL11qt_metacastEPKc
jellyfinmediaplayer:_ZN8InputSDL16staticMetaObjectE
jellyfinmediaplayer:_ZN8InputSDL3runEv
jellyfinmediaplayer:_ZN8InputSDL5closeEv
jellyfinmediaplayer:_ZN8InputSDL9initInputEv
jellyfinmediaplayer:_ZN8InputSDLC1EP7QObject
jellyfinmediaplayer:_ZN8InputSDLC2EP7QObject
jellyfinmediaplayer:_ZN8InputSDLD0Ev
jellyfinmediaplayer:_ZN8InputSDLD1Ev
jellyfinmediaplayer:_ZN8InputSDLD2Ev
jellyfinmediaplayer:_ZN9InputBase11qt_metacallEN11QMetaObject4CallEiPPv
jellyfinmediaplayer:_ZN9InputBase11qt_metacastEPKc
jellyfinmediaplayer:_ZN9InputBase13receivedInputERK7QStringS2_NS_13InputkeyStateE
jellyfinmediaplayer:_ZN9InputBase16staticMetaObjectE
jellyfinmediaplayer:_ZN9InputLIRC11isConnectedEv
jellyfinmediaplayer:_ZN9InputLIRC11qt_metacallEN11QMetaObject4CallEiPPv
jellyfinmediaplayer:_ZN9InputLIRC11qt_metacastEPKc
jellyfinmediaplayer:_ZN9InputLIRC11socketerrorEN12QLocalSocket16LocalSocketErrorE
jellyfinmediaplayer:_ZN9InputLIRC12disconnectedEv
jellyfinmediaplayer:_ZN9InputLIRC13connectToLIRCEv
jellyfinmediaplayer:_ZN9InputLIRC16staticMetaObjectE
jellyfinmediaplayer:_ZN9InputLIRC18disconnectFromLIRCEv
jellyfinmediaplayer:_ZN9InputLIRC4readEi
jellyfinmediaplayer:_ZN9InputLIRC9connectedEv
jellyfinmediaplayer:_ZN9InputLIRC9initInputEv
jellyfinmediaplayer:_ZN9InputLIRCC1EP7QObject
jellyfinmediaplayer:_ZN9InputLIRCC2EP7QObject
jellyfinmediaplayer:_ZN9InputLIRCD0Ev
jellyfinmediaplayer:_ZN9InputLIRCD1Ev
jellyfinmediaplayer:_ZN9InputLIRCD2Ev
jellyfinmediaplayer:_ZN9InputRoku11qt_metacallEN11QMetaObject4CallEiPPv
jellyfinmediaplayer:_ZN9InputRoku11qt_metacastEPKc
jellyfinmediaplayer:_ZN9InputRoku13getSSDPPacketERK12QHostAddress
jellyfinmediaplayer:_ZN9InputRoku13handleRequestEPN5qhttp6server12QHttpRequestEPNS1_13QHttpResponseE
jellyfinmediaplayer:_ZN9InputRoku13parseSSDPDataERK10QByteArrayRK12QHostAddresst
jellyfinmediaplayer:_ZN9InputRoku14handleKeyPressEPN5qhttp6server12QHttpRequestEPNS1_13QHttpResponseE
jellyfinmediaplayer:_ZN9InputRoku14handleRootInfoEPN5qhttp6server12QHttpRequestEPNS1_13QHttpResponseE
jellyfinmediaplayer:_ZN9InputRoku15handleQueryAppsEPN5qhttp6server12QHttpRequestEPNS1_13QHttpResponseE
jellyfinmediaplayer:_ZN9InputRoku16staticMetaObjectE
jellyfinmediaplayer:_ZN9InputRoku21handleQueryDeviceInfoEPN5qhttp6server12QHttpRequestEPNS1_13QHttpResponseE
jellyfinmediaplayer:_ZN9InputRoku8ssdpReadEv
jellyfinmediaplayer:_ZN9InputRoku9initInputEv
jellyfinmediaplayer:_ZN9QsLogging10LoggerImplC1Ev
jellyfinmediaplayer:_ZN9QsLogging10LoggerImplC2Ev
jellyfinmediaplayer:_ZN9QsLogging11DestinationD0Ev
jellyfinmediaplayer:_ZN9QsLogging11DestinationD1Ev
jellyfinmediaplayer:_ZN9QsLogging11DestinationD2Ev
jellyfinmediaplayer:_ZN9QsLogging15FileDestination5writeERK7QStringNS_5LevelE
jellyfinmediaplayer:_ZN9QsLogging15FileDestination6rotateEv
jellyfinmediaplayer:_ZN9QsLogging15FileDestination7isValidEv
jellyfinmediaplayer:_ZN9QsLogging15FileDestinationC1ERK7QString14QSharedPointerINS_16RotationStrategyEE
jellyfinmediaplayer:_ZN9QsLogging15FileDestinationC2ERK7QString14QSharedPointerINS_16RotationStrategyEE
jellyfinmediaplayer:_ZN9QsLogging16RotationStrategyD0Ev
jellyfinmediaplayer:_ZN9QsLogging16RotationStrategyD1Ev
jellyfinmediaplayer:_ZN9QsLogging16RotationStrategyD2Ev
jellyfinmediaplayer:_ZN9QsLogging17LogWriterRunnable3runEv
jellyfinmediaplayer:_ZN9QsLogging17LogWriterRunnableC1E7QStringNS_5LevelE
jellyfinmediaplayer:_ZN9QsLogging17LogWriterRunnableC2E7QStringNS_5LevelE
jellyfinmediaplayer:_ZN9QsLogging18DestinationFactory19MakeFileDestinationERK7QStringNS_17LogRotationOptionERKNS_12MaxSizeBytesERKNS_14MaxOldLogCountE
jellyfinmediaplayer:_ZN9QsLogging18DestinationFactory22MakeFunctorDestinationEP7QObjectPKc
jellyfinmediaplayer:_ZN9QsLogging18DestinationFactory22MakeFunctorDestinationEPFvRK7QStringNS_5LevelEE
jellyfinmediaplayer:_ZN9QsLogging18DestinationFactory26MakeDebugOutputDestinationEv
jellyfinmediaplayer:_ZN9QsLogging18FunctorDestination11qt_metacallEN11QMetaObject4CallEiPPv
jellyfinmediaplayer:_ZN9QsLogging18FunctorDestination11qt_metacastEPKc
jellyfinmediaplayer:_ZN9QsLogging18FunctorDestination15logMessageReadyERK7QStringi
jellyfinmediaplayer:_ZN9QsLogging18FunctorDestination16staticMetaObjectE
jellyfinmediaplayer:_ZN9QsLogging18FunctorDestination5writeERK7QStringNS_5LevelE
jellyfinmediaplayer:_ZN9QsLogging18FunctorDestination7isValidEv
jellyfinmediaplayer:_ZN9QsLogging18FunctorDestinationC1EP7QObjectPKc
jellyfinmediaplayer:_ZN9QsLogging18FunctorDestinationC1EPFvRK7QStringNS_5LevelEE
jellyfinmediaplayer:_ZN9QsLogging18FunctorDestinationC2EP7QObjectPKc
jellyfinmediaplayer:_ZN9QsLogging18FunctorDestinationC2EPFvRK7QStringNS_5LevelEE
jellyfinmediaplayer:_ZN9QsLogging20SizeRotationStrategy12shouldRotateEv
jellyfinmediaplayer:_ZN9QsLogging20SizeRotationStrategy14MaxBackupCountE
jellyfinmediaplayer:_ZN9QsLogging20SizeRotationStrategy14setBackupCountEi
jellyfinmediaplayer:_ZN9QsLogging20SizeRotationStrategy14setInitialInfoERK5QFile
jellyfinmediaplayer:_ZN9QsLogging20SizeRotationStrategy18currentSizeInBytesEv
jellyfinmediaplayer:_ZN9QsLogging20SizeRotationStrategy21setMaximumSizeInBytesEx
jellyfinmediaplayer:_ZN9QsLogging20SizeRotationStrategy23recommendedOpenModeFlagEv
jellyfinmediaplayer:_ZN9QsLogging20SizeRotationStrategy27includeMessageInCalculationERK7QString
jellyfinmediaplayer:_ZN9QsLogging20SizeRotationStrategy6rotateEv
jellyfinmediaplayer:_ZN9QsLogging20SizeRotationStrategyC1Ev
jellyfinmediaplayer:_ZN9QsLogging20SizeRotationStrategyC2Ev
jellyfinmediaplayer:_ZN9QsLogging22DebugOutputDestination5writeERK7QStringNS_5LevelE
jellyfinmediaplayer:_ZN9QsLogging22DebugOutputDestination7isValidEv
jellyfinmediaplayer:_ZN9QsLogging6Logger12enqueueWriteE7QStringNS_5LevelE
jellyfinmediaplayer:_ZN9QsLogging6Logger14addDestinationE14QSharedPointerINS_11DestinationEE
jellyfinmediaplayer:_ZN9QsLogging6Logger15destroyInstanceEv
jellyfinmediaplayer:_ZN9QsLogging6Logger15setLoggingLevelENS_5LevelE
jellyfinmediaplayer:_ZN9QsLogging6Logger19levelFromLogMessageERK7QStringPb
jellyfinmediaplayer:_ZN9QsLogging6Logger21setProcessingCallbackEPFvR7QStringE
jellyfinmediaplayer:_ZN9QsLogging6Logger5writeERK7QStringNS_5LevelE
jellyfinmediaplayer:_ZN9QsLogging6Logger6Helper10writeToLogEv
jellyfinmediaplayer:_ZN9QsLogging6Logger6HelperD1Ev
jellyfinmediaplayer:_ZN9QsLogging6Logger6HelperD2Ev
jellyfinmediaplayer:_ZN9QsLogging6Logger8instanceEv
jellyfinmediaplayer:_ZN9QsLogging6LoggerC1Ev
jellyfinmediaplayer:_ZN9QsLogging6LoggerC2Ev
jellyfinmediaplayer:_ZN9QsLogging6LoggerD1Ev
jellyfinmediaplayer:_ZN9QsLogging6LoggerD2Ev
jellyfinmediaplayer:_ZNK10Downloader10metaObjectEv
jellyfinmediaplayer:_ZNK11CodecDriver11getFileNameEv
jellyfinmediaplayer:_ZNK11CodecDriver13isSystemCodecEv
jellyfinmediaplayer:_ZNK11CodecDriver14getMangledNameEv
jellyfinmediaplayer:_ZNK11CodecDriver18getSystemCodecTypeEv
jellyfinmediaplayer:_ZNK11CodecDriver29isWhitelistedSystemAudioCodecEv
jellyfinmediaplayer:_ZNK11CodecDriver29isWhitelistedSystemVideoCodecEv
jellyfinmediaplayer:_ZNK11CodecDriver7getPathEv
jellyfinmediaplayer:_ZNK11EventFilter10metaObjectEv
jellyfinmediaplayer:_ZNK11InputSocket10metaObjectEv
jellyfinmediaplayer:_ZNK12ErrorMessage10metaObjectEv
jellyfinmediaplayer:_ZNK12InputMapping10metaObjectEv
jellyfinmediaplayer:_ZNK13CodecsFetcher10metaObjectEv
jellyfinmediaplayer:_ZNK13InputKeyboard10metaObjectEv
jellyfinmediaplayer:_ZNK13SettingsValue10metaObjectEv
jellyfinmediaplayer:_ZNK13SignalManager10metaObjectEv
jellyfinmediaplayer:_ZNK14DisplayManager10metaObjectEv
jellyfinmediaplayer:_ZNK14InputCECWorker10metaObjectEv
jellyfinmediaplayer:_ZNK14InputComponent10metaObjectEv
jellyfinmediaplayer:_ZNK14InputSDLWorker10metaObjectEv
jellyfinmediaplayer:_ZNK14KonvergoWindow10metaObjectEv
jellyfinmediaplayer:_ZNK14PlayerRenderer10metaObjectEv
jellyfinmediaplayer:_ZNK14PowerComponent10metaObjectEv
jellyfinmediaplayer:_ZNK15LocalJsonClient10metaObjectEv
jellyfinmediaplayer:_ZNK15LocalJsonServer10metaObjectEv
jellyfinmediaplayer:_ZNK15PlayerComponent10metaObjectEv
jellyfinmediaplayer:_ZNK15PlayerComponent16videoInformationEv
jellyfinmediaplayer:_ZNK15PlayerComponent17appendAudioFormatER11QTextStreamRK7QString
jellyfinmediaplayer:_ZNK15PlayerQuickItem10metaObjectEv
jellyfinmediaplayer:_ZNK15SettingsSection10metaObjectEv
jellyfinmediaplayer:_ZNK15SettingsSection12descriptionsEv
jellyfinmediaplayer:_ZNK15SettingsSection8isHiddenEv
jellyfinmediaplayer:_ZNK15SettingsSection9allValuesEv
jellyfinmediaplayer:_ZNK15SystemComponent10metaObjectEv
jellyfinmediaplayer:_ZNK15SystemComponent16networkAddressesEv
jellyfinmediaplayer:_ZNK15SystemComponent17systemInformationEv
jellyfinmediaplayer:_ZNK15SystemComponent21getPlatformArchStringEv
jellyfinmediaplayer:_ZNK15SystemComponent21getPlatformTypeStringEv
jellyfinmediaplayer:_ZNK16ComponentManager10metaObjectEv
jellyfinmediaplayer:_ZNK16DisplayComponent10metaObjectEv
jellyfinmediaplayer:_ZNK16TaskbarComponent10metaObjectEv
jellyfinmediaplayer:_ZNK17SettingsComponent10metaObjectEv
jellyfinmediaplayer:_ZNK17UniqueApplication10metaObjectEv
jellyfinmediaplayer:_ZNK19DisplayManagerDummy10metaObjectEv
jellyfinmediaplayer:_ZNK23AudioSettingsController10metaObjectEv
jellyfinmediaplayer:_ZNK5qhttp18QHttpAbstractInput10metaObjectEv
jellyfinmediaplayer:_ZNK5qhttp19QHttpAbstractOutput10metaObjectEv
jellyfinmediaplayer:_ZNK5qhttp6client11QHttpClient10metaObjectEv
jellyfinmediaplayer:_ZNK5qhttp6client11QHttpClient11backendTypeEv
jellyfinmediaplayer:_ZNK5qhttp6client11QHttpClient11localSocketEv
jellyfinmediaplayer:_ZNK5qhttp6client11QHttpClient6isOpenEv
jellyfinmediaplayer:_ZNK5qhttp6client11QHttpClient7timeOutEv
jellyfinmediaplayer:_ZNK5qhttp6client11QHttpClient9tcpSocketEv
jellyfinmediaplayer:_ZNK5qhttp6client12QHttpRequest10connectionEv
jellyfinmediaplayer:_ZNK5qhttp6client12QHttpRequest10metaObjectEv
jellyfinmediaplayer:_ZNK5qhttp6client13QHttpResponse10connectionEv
jellyfinmediaplayer:_ZNK5qhttp6client13QHttpResponse10metaObjectEv
jellyfinmediaplayer:_ZNK5qhttp6client13QHttpResponse11httpVersionEv
jellyfinmediaplayer:_ZNK5qhttp6client13QHttpResponse12isSuccessfulEv
jellyfinmediaplayer:_ZNK5qhttp6client13QHttpResponse12statusStringEv
jellyfinmediaplayer:_ZNK5qhttp6client13QHttpResponse13collectedDataEv
jellyfinmediaplayer:_ZNK5qhttp6client13QHttpResponse6statusEv
jellyfinmediaplayer:_ZNK5qhttp6client13QHttpResponse7headersEv
jellyfinmediaplayer:_ZNK5qhttp6server11QHttpServer10metaObjectEv
jellyfinmediaplayer:_ZNK5qhttp6server11QHttpServer11backendTypeEv
jellyfinmediaplayer:_ZNK5qhttp6server11QHttpServer11isListeningEv
jellyfinmediaplayer:_ZNK5qhttp6server11QHttpServer11localServerEv
jellyfinmediaplayer:_ZNK5qhttp6server11QHttpServer7timeOutEv
jellyfinmediaplayer:_ZNK5qhttp6server11QHttpServer9tcpServerEv
jellyfinmediaplayer:_ZNK5qhttp6server12QHttpRequest10connectionEv
jellyfinmediaplayer:_ZNK5qhttp6server12QHttpRequest10metaObjectEv
jellyfinmediaplayer:_ZNK5qhttp6server12QHttpRequest10remotePortEv
jellyfinmediaplayer:_ZNK5qhttp6server12QHttpRequest11httpVersionEv
jellyfinmediaplayer:_ZNK5qhttp6server12QHttpRequest12isSuccessfulEv
jellyfinmediaplayer:_ZNK5qhttp6server12QHttpRequest12methodStringEv
jellyfinmediaplayer:_ZNK5qhttp6server12QHttpRequest13collectedDataEv
jellyfinmediaplayer:_ZNK5qhttp6server12QHttpRequest13remoteAddressEv
jellyfinmediaplayer:_ZNK5qhttp6server12QHttpRequest3urlEv
jellyfinmediaplayer:_ZNK5qhttp6server12QHttpRequest6methodEv
jellyfinmediaplayer:_ZNK5qhttp6server12QHttpRequest7headersEv
jellyfinmediaplayer:_ZNK5qhttp6server13QHttpResponse10connectionEv
jellyfinmediaplayer:_ZNK5qhttp6server13QHttpResponse10metaObjectEv
jellyfinmediaplayer:_ZNK5qhttp6server15QHttpConnection10metaObjectEv
jellyfinmediaplayer:_ZNK5qhttp6server15QHttpConnection11backendTypeEv
jellyfinmediaplayer:_ZNK5qhttp6server15QHttpConnection11localSocketEv
jellyfinmediaplayer:_ZNK5qhttp6server15QHttpConnection9tcpSocketEv
jellyfinmediaplayer:_ZNK8InputSDL10metaObjectEv
jellyfinmediaplayer:_ZNK9InputBase10metaObjectEv
jellyfinmediaplayer:_ZNK9InputLIRC10metaObjectEv
jellyfinmediaplayer:_ZNK9InputRoku10metaObjectEv
jellyfinmediaplayer:_ZNK9QsLogging18FunctorDestination10metaObjectEv
jellyfinmediaplayer:_ZNK9QsLogging6Logger12loggingLevelEv
jellyfinmediaplayer:_ZThn16_N14KonvergoWindowD0Ev
jellyfinmediaplayer:_ZThn16_N14KonvergoWindowD1Ev
jellyfinmediaplayer:_ZThn16_N15PlayerQuickItemD0Ev
jellyfinmediaplayer:_ZThn16_N15PlayerQuickItemD1Ev
jellyfinmediaplayer:_ZThn16_N9QsLogging18FunctorDestination5writeERK7QStringNS_5LevelE
jellyfinmediaplayer:_ZThn16_N9QsLogging18FunctorDestination7isValidEv
jellyfinmediaplayer:__bss_start
jellyfinmediaplayer:__data_start
jellyfinmediaplayer:_edata
jellyfinmediaplayer:_end
jellyfinmediaplayer:_start
jellyfinmediaplayer:g_platformArchNames
jellyfinmediaplayer:g_platformTypeNames
jellyfinmediaplayer:g_qtFlags
jellyfinmediaplayer:httpSeparators
jellyfinmediaplayer:http_body_is_final
jellyfinmediaplayer:http_errno_description
jellyfinmediaplayer:http_errno_name
jellyfinmediaplayer:http_message_needs_eof
jellyfinmediaplayer:http_method_str
jellyfinmediaplayer:http_parser_execute
jellyfinmediaplayer:http_parser_init
jellyfinmediaplayer:http_parser_parse_url
jellyfinmediaplayer:http_parser_pause
jellyfinmediaplayer:http_parser_settings_init
jellyfinmediaplayer:http_parser_url_init
jellyfinmediaplayer:http_parser_version
jellyfinmediaplayer:http_should_keep_alive
jellyfinmediaplayer:main
